libdlib.so.19.24.2:_ZN4dlib10connection13disable_nagleEv
libdlib.so.19.24.2:_ZN4dlib10connection4readEPcl
libdlib.so.19.24.2:_ZN4dlib10connection4readEPclm
libdlib.so.19.24.2:_ZN4dlib10connection5writeEPKcl
libdlib.so.19.24.2:_ZN4dlib10connection8shutdownEv
libdlib.so.19.24.2:_ZN4dlib10connectionC1EiiRKNSt7__cxx1112basic_stringIcSt11char_traitsIcESaIcEEEiS8_
libdlib.so.19.24.2:_ZN4dlib10connectionC2EiiRKNSt7__cxx1112basic_stringIcSt11char_traitsIcESaIcEEEiS8_
libdlib.so.19.24.2:_ZN4dlib10connectionD1Ev
libdlib.so.19.24.2:_ZN4dlib10connectionD2Ev
libdlib.so.19.24.2:_ZN4dlib10png_loader10check_fileEPKc
libdlib.so.19.24.2:_ZN4dlib10png_loader10read_imageESt10unique_ptrINS_8FileInfoESt14default_deleteIS2_EE
libdlib.so.19.24.2:_ZN4dlib10png_loaderC1EPKc
libdlib.so.19.24.2:_ZN4dlib10png_loaderC1EPKhm
libdlib.so.19.24.2:_ZN4dlib10png_loaderC1ERKNS_4fileE
libdlib.so.19.24.2:_ZN4dlib10png_loaderC1ERKNSt7__cxx1112basic_stringIcSt11char_traitsIcESaIcEEE
libdlib.so.19.24.2:_ZN4dlib10png_loaderC2EPKc
libdlib.so.19.24.2:_ZN4dlib10png_loaderC2EPKhm
libdlib.so.19.24.2:_ZN4dlib10png_loaderC2ERKNS_4fileE
libdlib.so.19.24.2:_ZN4dlib10png_loaderC2ERKNSt7__cxx1112basic_stringIcSt11char_traitsIcESaIcEEE
libdlib.so.19.24.2:_ZN4dlib10png_loaderD1Ev
libdlib.so.19.24.2:_ZN4dlib10png_loaderD2Ev
libdlib.so.19.24.2:_ZN4dlib10popup_menu11on_mouse_upEmmll
libdlib.so.19.24.2:_ZN4dlib10popup_menu13close_submenuEv
libdlib.so.19.24.2:_ZN4dlib10popup_menu13on_mouse_moveEmll
libdlib.so.19.24.2:_ZN4dlib10popup_menu14on_mouse_leaveEv
libdlib.so.19.24.2:_ZN4dlib10popup_menu15on_submenu_hideEv
libdlib.so.19.24.2:_ZN4dlib10popup_menu16enable_menu_itemEm
libdlib.so.19.24.2:_ZN4dlib10popup_menu17disable_menu_itemEm
libdlib.so.19.24.2:_ZN4dlib10popup_menu17on_window_resizedEv
libdlib.so.19.24.2:_ZN4dlib10popup_menu17select_first_itemEv
libdlib.so.19.24.2:_ZN4dlib10popup_menu20forwarded_on_keydownEmbm
libdlib.so.19.24.2:_ZN4dlib10popup_menu24display_selected_submenuEv
libdlib.so.19.24.2:_ZN4dlib10popup_menu4hideEv
libdlib.so.19.24.2:_ZN4dlib10popup_menu4showEv
libdlib.so.19.24.2:_ZN4dlib10popup_menu5clearEv
libdlib.so.19.24.2:_ZN4dlib10popup_menu5paintERKNS_6canvasE
libdlib.so.19.24.2:_ZN4dlib10popup_menuC1Ev
libdlib.so.19.24.2:_ZN4dlib10popup_menuC2Ev
libdlib.so.19.24.2:_ZN4dlib10scroll_bar10set_lengthEm
libdlib.so.19.24.2:_ZN4dlib10scroll_bar11hide_sliderEv
libdlib.so.19.24.2:_ZN4dlib10scroll_bar11show_sliderEv
libdlib.so.19.24.2:_ZN4dlib10scroll_bar13on_user_eventEi
libdlib.so.19.24.2:_ZN4dlib10scroll_bar13set_jump_sizeEl
libdlib.so.19.24.2:_ZN4dlib10scroll_bar13top_filler_upEb
libdlib.so.19.24.2:_ZN4dlib10scroll_bar14adjust_fillersEv
libdlib.so.19.24.2:_ZN4dlib10scroll_bar14on_slider_dragEv
libdlib.so.19.24.2:_ZN4dlib10scroll_bar14set_slider_posEl
libdlib.so.19.24.2:_ZN4dlib10scroll_bar15top_filler_downEv
libdlib.so.19.24.2:_ZN4dlib10scroll_bar16bottom_filler_upEb
libdlib.so.19.24.2:_ZN4dlib10scroll_bar17top_filler_down_tEv
libdlib.so.19.24.2:_ZN4dlib10scroll_bar18bottom_filler_downEv
libdlib.so.19.24.2:_ZN4dlib10scroll_bar18set_max_slider_posEl
libdlib.so.19.24.2:_ZN4dlib10scroll_bar20bottom_filler_down_tEv
libdlib.so.19.24.2:_ZN4dlib10scroll_bar22delayed_set_slider_posEm
libdlib.so.19.24.2:_ZN4dlib10scroll_bar5b1_upEb
libdlib.so.19.24.2:_ZN4dlib10scroll_bar5b2_upEb
libdlib.so.19.24.2:_ZN4dlib10scroll_bar7b1_downEv
libdlib.so.19.24.2:_ZN4dlib10scroll_bar7b2_downEv
libdlib.so.19.24.2:_ZN4dlib10scroll_bar7set_posEll
libdlib.so.19.24.2:_ZN4dlib10scroll_bar9b1_down_tEv
libdlib.so.19.24.2:_ZN4dlib10scroll_bar9b2_down_tEv
libdlib.so.19.24.2:_ZN4dlib10scroll_barC1ERNS_15drawable_windowENS0_15bar_orientationE
libdlib.so.19.24.2:_ZN4dlib10scroll_barC2ERNS_15drawable_windowENS0_15bar_orientationE
libdlib.so.19.24.2:_ZN4dlib10scroll_barD0Ev
libdlib.so.19.24.2:_ZN4dlib10scroll_barD1Ev
libdlib.so.19.24.2:_ZN4dlib10scroll_barD2Ev
libdlib.so.19.24.2:_ZN4dlib10text_field10on_keydownEmbm
libdlib.so.19.24.2:_ZN4dlib10text_field11move_cursorEm
libdlib.so.19.24.2:_ZN4dlib10text_field11on_mouse_upEmmll
libdlib.so.19.24.2:_ZN4dlib10text_field12timer_actionEv
libdlib.so.19.24.2:_ZN4dlib10text_field13on_mouse_downEmmllb
libdlib.so.19.24.2:_ZN4dlib10text_field13on_mouse_moveEmll
libdlib.so.19.24.2:_ZN4dlib10text_field13on_select_allEv
libdlib.so.19.24.2:_ZN4dlib10text_field13on_string_putERKNSt7__cxx1112basic_stringIwSt11char_traitsIwESaIwEEE
libdlib.so.19.24.2:_ZN4dlib10text_field13set_main_fontERKSt10shared_ptrINS_4fontEE
libdlib.so.19.24.2:_ZN4dlib10text_field14set_text_colorENS_9rgb_pixelE
libdlib.so.19.24.2:_ZN4dlib10text_field15select_all_textEv
libdlib.so.19.24.2:_ZN4dlib10text_field16give_input_focusEv
libdlib.so.19.24.2:_ZN4dlib10text_field18on_delete_selectedEv
libdlib.so.19.24.2:_ZN4dlib10text_field19on_no_text_selectedEv
libdlib.so.19.24.2:_ZN4dlib10text_field19on_text_is_selectedEv
libdlib.so.19.24.2:_ZN4dlib10text_field20set_background_colorENS_9rgb_pixelE
libdlib.so.19.24.2:_ZN4dlib10text_field4hideEv
libdlib.so.19.24.2:_ZN4dlib10text_field4showEv
libdlib.so.19.24.2:_ZN4dlib10text_field6enableEv
libdlib.so.19.24.2:_ZN4dlib10text_field6on_cutEv
libdlib.so.19.24.2:_ZN4dlib10text_field7disableEv
libdlib.so.19.24.2:_ZN4dlib10text_field7on_copyEv
libdlib.so.19.24.2:_ZN4dlib10text_field7set_posEll
libdlib.so.19.24.2:_ZN4dlib10text_field8on_pasteEv
libdlib.so.19.24.2:_ZN4dlib10text_field8set_textERKNSt7__cxx1112basic_stringIcSt11char_traitsIcESaIcEEE
libdlib.so.19.24.2:_ZN4dlib10text_field8set_textERKNSt7__cxx1112basic_stringIjSt11char_traitsIjESaIjEEE
libdlib.so.19.24.2:_ZN4dlib10text_field8set_textERKNSt7__cxx1112basic_stringIwSt11char_traitsIwESaIwEEE
libdlib.so.19.24.2:_ZN4dlib10text_field9set_widthEm
libdlib.so.19.24.2:_ZN4dlib11base_window10set_im_posEll
libdlib.so.19.24.2:_ZN4dlib11base_window12close_windowEv
libdlib.so.19.24.2:_ZN4dlib11base_window18trigger_user_eventEPvi
libdlib.so.19.24.2:_ZN4dlib11base_window20invalidate_rectangleERKNS_9rectangleE
libdlib.so.19.24.2:_ZN4dlib11base_window4hideEv
libdlib.so.19.24.2:_ZN4dlib11base_window4showEv
libdlib.so.19.24.2:_ZN4dlib11base_window7get_posERlS1_
libdlib.so.19.24.2:_ZN4dlib11base_window7set_posEll
libdlib.so.19.24.2:_ZN4dlib11base_window8set_sizeEii
libdlib.so.19.24.2:_ZN4dlib11base_window9set_titleERKNSt7__cxx1112basic_stringIcSt11char_traitsIcESaIcEEE
libdlib.so.19.24.2:_ZN4dlib11base_window9set_titleERKNSt7__cxx1112basic_stringIjSt11char_traitsIjESaIjEEE
libdlib.so.19.24.2:_ZN4dlib11base_window9set_titleERKNSt7__cxx1112basic_stringIwSt11char_traitsIwESaIwEEE
libdlib.so.19.24.2:_ZN4dlib11base_windowC1Ebb
libdlib.so.19.24.2:_ZN4dlib11base_windowC2Ebb
libdlib.so.19.24.2:_ZN4dlib11base_windowD0Ev
libdlib.so.19.24.2:_ZN4dlib11base_windowD1Ev
libdlib.so.19.24.2:_ZN4dlib11base_windowD2Ev
libdlib.so.19.24.2:_ZN4dlib11bsp_context12receive_dataERSt10shared_ptrISt6vectorIcSaIcEEERm
libdlib.so.19.24.2:_ZN4dlib11bsp_context14broadcast_byteEc
libdlib.so.19.24.2:_ZN4dlib11bsp_context19notify_control_nodeEc
libdlib.so.19.24.2:_ZN4dlib11bsp_context32close_all_connections_gracefullyEv
libdlib.so.19.24.2:_ZN4dlib11bsp_context9send_dataERKSt6vectorIcSaIcEEm
libdlib.so.19.24.2:_ZN4dlib11bsp_contextC1EmRNS_12map_kernel_cINS_12map_kernel_1ImSt10unique_ptrINS_5impl17bsp_conESt14default_deleteIS5_EENS_27binary_search_tree_kernel_1ImS8_NS_33memory_manager_stateless_kernel_1IcEESt4lessImEEESB_EEEE
libdlib.so.19.24.2:_ZN4dlib11bsp_contextC2EmRNS_12map_kernel_cINS_12map_kernel_1ImSt10unique_ptrINS_5impl17bsp_conESt14default_deleteIS5_EENS_27binary_search_tree_kernel_1ImS8_NS_33memory_manager_stateless_kernel_1IcEESt4lessImEEESB_EEEE
libdlib.so.19.24.2:_ZN4dlib11bsp_contextD1Ev
libdlib.so.19.24.2:_ZN4dlib11bsp_contextD2Ev
libdlib.so.19.24.2:_ZN4dlib11deserializeERNS_15network_addressERSi
libdlib.so.19.24.2:_ZN4dlib11deserializeERNS_6letterERSi
libdlib.so.19.24.2:_ZN4dlib11fatal_error26dlib_fatal_error_terminateEv
libdlib.so.19.24.2:_ZN4dlib11file_existsERKNSt7__cxx1112basic_stringIcSt11char_traitsIcESaIcEEE
libdlib.so.19.24.2:_ZN4dlib11jpeg_loader10check_fileEPKc
libdlib.so.19.24.2:_ZN4dlib11jpeg_loader10read_imageEP8_IO_FILEPKhm
libdlib.so.19.24.2:_ZN4dlib11jpeg_loaderC1EPKc
libdlib.so.19.24.2:_ZN4dlib11jpeg_loaderC1EPKhm
libdlib.so.19.24.2:_ZN4dlib11jpeg_loaderC1ERKNS_4fileE
libdlib.so.19.24.2:_ZN4dlib11jpeg_loaderC1ERKNSt7__cxx1112basic_stringIcSt11char_traitsIcESaIcEEE
libdlib.so.19.24.2:_ZN4dlib11jpeg_loaderC2EPKc
libdlib.so.19.24.2:_ZN4dlib11jpeg_loaderC2EPKhm
libdlib.so.19.24.2:_ZN4dlib11jpeg_loaderC2ERKNS_4fileE
libdlib.so.19.24.2:_ZN4dlib11jpeg_loaderC2ERKNSt7__cxx1112basic_stringIcSt11char_traitsIcESaIcEEE
libdlib.so.19.24.2:_ZN4dlib12default_fontC1Ev
libdlib.so.19.24.2:_ZN4dlib12default_fontC2Ev
libdlib.so.19.24.2:_ZN4dlib12image_window10on_keydownEmbm
libdlib.so.19.24.2:_ZN4dlib12image_window10tie_eventsEv
libdlib.so.19.24.2:_ZN4dlib12image_window11add_overlayERKNS_13image_display12overlay_lineE
libdlib.so.19.24.2:_ZN4dlib12image_window11add_overlayERKNS_13image_display12overlay_rectE
libdlib.so.19.24.2:_ZN4dlib12image_window11add_overlayERKNS_13image_display14overlay_circleE
libdlib.so.19.24.2:_ZN4dlib12image_window11add_overlayERKSt6vectorINS_13image_display12overlay_lineESaIS3_EE
libdlib.so.19.24.2:_ZN4dlib12image_window11add_overlayERKSt6vectorINS_13image_display12overlay_rectESaIS3_EE
libdlib.so.19.24.2:_ZN4dlib12image_window11add_overlayERKSt6vectorINS_13image_display14overlay_circleESaIS3_EE
libdlib.so.19.24.2:_ZN4dlib12image_window12untie_eventsEv
libdlib.so.19.24.2:_ZN4dlib12image_window13clear_overlayEv
libdlib.so.19.24.2:_ZN4dlib12image_window15on_window_closeEv
libdlib.so.19.24.2:_ZN4dlib12image_window16on_image_clickedERKNS_6vectorIlLl2EEEbm
libdlib.so.19.24.2:_ZN4dlib12image_window17get_next_keypressERmRbS1_
libdlib.so.19.24.2:_ZN4dlib12image_window17on_window_resizedEv
libdlib.so.19.24.2:_ZN4dlib12image_window21get_next_double_clickERNS_6vectorIlLl2EEERm
libdlib.so.19.24.2:_ZN4dlib12image_windowC1Ev
libdlib.so.19.24.2:_ZN4dlib12image_windowC2Ev
libdlib.so.19.24.2:_ZN4dlib12image_windowD0Ev
libdlib.so.19.24.2:_ZN4dlib12image_windowD1Ev
libdlib.so.19.24.2:_ZN4dlib12image_windowD2Ev
libdlib.so.19.24.2:_ZN4dlib12widget_group11set_z_orderEl
libdlib.so.19.24.2:_ZN4dlib12widget_group15fit_to_contentsEv
libdlib.so.19.24.2:_ZN4dlib12widget_group3addERNS_8drawableEmm
libdlib.so.19.24.2:_ZN4dlib12widget_group3addERS0_mm
libdlib.so.19.24.2:_ZN4dlib12widget_group4hideEv
libdlib.so.19.24.2:_ZN4dlib12widget_group4showEv
libdlib.so.19.24.2:_ZN4dlib12widget_group5emptyEv
libdlib.so.19.24.2:_ZN4dlib12widget_group6enableEv
libdlib.so.19.24.2:_ZN4dlib12widget_group6removeERKNS_8drawableE
libdlib.so.19.24.2:_ZN4dlib12widget_group7disableEv
libdlib.so.19.24.2:_ZN4dlib12widget_group7set_posEll
libdlib.so.19.24.2:_ZN4dlib13button_action11on_mouse_upEmmll
libdlib.so.19.24.2:_ZN4dlib13button_action13on_mouse_downEmmllb
libdlib.so.19.24.2:_ZN4dlib13button_action13on_mouse_moveEmll
libdlib.so.19.24.2:_ZN4dlib13button_action13on_user_eventEi
libdlib.so.19.24.2:_ZN4dlib13button_action17on_mouse_not_overEv
libdlib.so.19.24.2:_ZN4dlib13button_actionD0Ev
libdlib.so.19.24.2:_ZN4dlib13button_actionD1Ev
libdlib.so.19.24.2:_ZN4dlib13button_actionD2Ev
libdlib.so.19.24.2:_ZN4dlib13function_specC1ENS_6matrixIdLl0ELl1ENS_33memory_manager_stateless_kernel_1IcEENS_16row_major_layoutEEES5_
libdlib.so.19.24.2:_ZN4dlib13function_specC1ENS_6matrixIdLl0ELl1ENS_33memory_manager_stateless_kernel_1IcEENS_16row_major_layoutEEES5_St6vectorIbSaIbEE
libdlib.so.19.24.2:_ZN4dlib13function_specC2ENS_6matrixIdLl0ELl1ENS_33memory_manager_stateless_kernel_1IcEENS_16row_major_layoutEEES5_
libdlib.so.19.24.2:_ZN4dlib13function_specC2ENS_6matrixIdLl0ELl1ENS_33memory_manager_stateless_kernel_1IcEENS_16row_major_layoutEEES5_St6vectorIbSaIbEE
libdlib.so.19.24.2:_ZN4dlib13image_display10on_keydownEmbm
libdlib.so.19.24.2:_ZN4dlib13image_display11add_overlayERKNS0_12overlay_lineE
libdlib.so.19.24.2:_ZN4dlib13image_display11add_overlayERKNS0_12overlay_rectE
libdlib.so.19.24.2:_ZN4dlib13image_display11add_overlayERKNS0_14overlay_circleE
libdlib.so.19.24.2:_ZN4dlib13image_display11add_overlayERKSt6vectorINS0_12overlay_lineESaIS2_EE
libdlib.so.19.24.2:_ZN4dlib13image_display11add_overlayERKSt6vectorINS0_12overlay_rectESaIS2_EE
libdlib.so.19.24.2:_ZN4dlib13image_display11add_overlayERKSt6vectorINS0_14overlay_circleESaIS2_EE
libdlib.so.19.24.2:_ZN4dlib13image_display11on_mouse_upEmmll
libdlib.so.19.24.2:_ZN4dlib13image_display11on_part_addERKNSt7__cxx1112basic_stringIcSt11char_traitsIcESaIcEEE
libdlib.so.19.24.2:_ZN4dlib13image_display11on_wheel_upEm
libdlib.so.19.24.2:_ZN4dlib13image_display13clear_overlayEv
libdlib.so.19.24.2:_ZN4dlib13image_display13on_mouse_downEmmllb
libdlib.so.19.24.2:_ZN4dlib13image_display13on_mouse_moveEmll
libdlib.so.19.24.2:_ZN4dlib13image_display13on_wheel_downEm
libdlib.so.19.24.2:_ZN4dlib13image_display23add_labelable_part_nameERKNSt7__cxx1112basic_stringIcSt11char_traitsIcESaIcEEE
libdlib.so.19.24.2:_ZN4dlib13image_display26clear_labelable_part_namesEv
libdlib.so.19.24.2:_ZN4dlib13image_display28timer_event_unhighlight_rectEv
libdlib.so.19.24.2:_ZN4dlib13image_display30set_default_overlay_rect_colorERKNS_15rgb_alpha_pixelE
libdlib.so.19.24.2:_ZN4dlib13image_display30set_default_overlay_rect_labelERKNSt7__cxx1112basic_stringIcSt11char_traitsIcESaIcEEE
libdlib.so.19.24.2:_ZN4dlib13image_display7zoom_inEv
libdlib.so.19.24.2:_ZN4dlib13image_display8zoom_outEv
libdlib.so.19.24.2:_ZN4dlib13image_displayC1ERNS_15drawable_windowE
libdlib.so.19.24.2:_ZN4dlib13image_displayC2ERNS_15drawable_windowE
libdlib.so.19.24.2:_ZN4dlib13image_displayD0Ev
libdlib.so.19.24.2:_ZN4dlib13image_displayD1Ev
libdlib.so.19.24.2:_ZN4dlib13image_displayD2Ev
libdlib.so.19.24.2:_ZN4dlib13is_ip_addressENSt7__cxx1112basic_stringIcSt11char_traitsIcESaIcEEE
libdlib.so.19.24.2:_ZN4dlib13mouse_tracker13on_mouse_downEmmllb
libdlib.so.19.24.2:_ZN4dlib13mouse_tracker13on_mouse_moveEmll
libdlib.so.19.24.2:_ZN4dlib13mouse_tracker13set_main_fontERKSt10shared_ptrINS_4fontEE
libdlib.so.19.24.2:_ZN4dlib13mouse_tracker4hideEv
libdlib.so.19.24.2:_ZN4dlib13mouse_tracker4showEv
libdlib.so.19.24.2:_ZN4dlib13mouse_tracker6enableEv
libdlib.so.19.24.2:_ZN4dlib13mouse_tracker7disableEv
libdlib.so.19.24.2:_ZN4dlib13mouse_tracker7on_dragEv
libdlib.so.19.24.2:_ZN4dlib13mouse_tracker7set_posEll
libdlib.so.19.24.2:_ZN4dlib13mouse_trackerC1ERNS_15drawable_windowE
libdlib.so.19.24.2:_ZN4dlib13mouse_trackerC2ERNS_15drawable_windowE
libdlib.so.19.24.2:_ZN4dlib13mouse_trackerD0Ev
libdlib.so.19.24.2:_ZN4dlib13mouse_trackerD1Ev
libdlib.so.19.24.2:_ZN4dlib13mouse_trackerD2Ev
libdlib.so.19.24.2:_ZN4dlib13sockstreambuf6xsgetnEPcl
libdlib.so.19.24.2:_ZN4dlib13sockstreambuf6xsputnEPKcl
libdlib.so.19.24.2:_ZN4dlib13sockstreambuf8overflowEi
libdlib.so.19.24.2:_ZN4dlib13sockstreambuf9underflowEv
libdlib.so.19.24.2:_ZN4dlib13toggle_button11set_checkedEv
libdlib.so.19.24.2:_ZN4dlib13toggle_button12on_button_upEb
libdlib.so.19.24.2:_ZN4dlib13toggle_button13set_main_fontERKSt10shared_ptrINS_4fontEE
libdlib.so.19.24.2:_ZN4dlib13toggle_button13set_uncheckedEv
libdlib.so.19.24.2:_ZN4dlib13toggle_button16set_tooltip_textERKNSt7__cxx1112basic_stringIcSt11char_traitsIcESaIcEEE
libdlib.so.19.24.2:_ZN4dlib13toggle_button16set_tooltip_textERKNSt7__cxx1112basic_stringIjSt11char_traitsIjESaIjEEE
libdlib.so.19.24.2:_ZN4dlib13toggle_button16set_tooltip_textERKNSt7__cxx1112basic_stringIwSt11char_traitsIwESaIwEEE
libdlib.so.19.24.2:_ZN4dlib13toggle_button4hideEv
libdlib.so.19.24.2:_ZN4dlib13toggle_button4showEv
libdlib.so.19.24.2:_ZN4dlib13toggle_button6enableEv
libdlib.so.19.24.2:_ZN4dlib13toggle_button7disableEv
libdlib.so.19.24.2:_ZN4dlib13toggle_button7set_posEll
libdlib.so.19.24.2:_ZN4dlib13toggle_button8set_nameERKNSt7__cxx1112basic_stringIcSt11char_traitsIcESaIcEEE
libdlib.so.19.24.2:_ZN4dlib13toggle_button8set_nameERKNSt7__cxx1112basic_stringIjSt11char_traitsIjESaIjEEE
libdlib.so.19.24.2:_ZN4dlib13toggle_button8set_nameERKNSt7__cxx1112basic_stringIwSt11char_traitsIwESaIwEEE
libdlib.so.19.24.2:_ZN4dlib13toggle_button8set_sizeEmm
libdlib.so.19.24.2:_ZN4dlib14draw_button_upERKNS_6canvasERKNS_9rectangleEh
libdlib.so.19.24.2:_ZN4dlib14hostname_to_ipERKNSt7__cxx1112basic_stringIcSt11char_traitsIcESaIcEEERS5_i
libdlib.so.19.24.2:_ZN4dlib14ip_to_hostnameERKNSt7__cxx1112basic_stringIcSt11char_traitsIcESaIcEEERS5_
libdlib.so.19.24.2:_ZN4dlib14is_dlib_threadEm
libdlib.so.19.24.2:_ZN4dlib14is_dlib_threadEv
libdlib.so.19.24.2:_ZN4dlib14tabbed_display12set_tab_nameEmRKNSt7__cxx1112basic_stringIcSt11char_traitsIcESaIcEEE
libdlib.so.19.24.2:_ZN4dlib14tabbed_display12set_tab_nameEmRKNSt7__cxx1112basic_stringIjSt11char_traitsIjESaIjEEE
libdlib.so.19.24.2:_ZN4dlib14tabbed_display12set_tab_nameEmRKNSt7__cxx1112basic_stringIwSt11char_traitsIwESaIwEEE
libdlib.so.19.24.2:_ZN4dlib14tabbed_display13on_mouse_downEmmllb
libdlib.so.19.24.2:_ZN4dlib14tabbed_display13set_main_fontERKSt10shared_ptrINS_4fontEE
libdlib.so.19.24.2:_ZN4dlib14tabbed_display13set_tab_groupEmRNS_12widget_groupE
libdlib.so.19.24.2:_ZN4dlib14tabbed_display14recompute_tabsEv
libdlib.so.19.24.2:_ZN4dlib14tabbed_display15fit_to_contentsEv
libdlib.so.19.24.2:_ZN4dlib14tabbed_display18set_number_of_tabsEm
libdlib.so.19.24.2:_ZN4dlib14tabbed_display4hideEv
libdlib.so.19.24.2:_ZN4dlib14tabbed_display4showEv
libdlib.so.19.24.2:_ZN4dlib14tabbed_display6enableEv
libdlib.so.19.24.2:_ZN4dlib14tabbed_display7disableEv
libdlib.so.19.24.2:_ZN4dlib14tabbed_display7set_posEll
libdlib.so.19.24.2:_ZN4dlib14tabbed_display8set_sizeEmm
libdlib.so.19.24.2:_ZN4dlib14tabbed_displayC1ERNS_15drawable_windowE
libdlib.so.19.24.2:_ZN4dlib14tabbed_displayC2ERNS_15drawable_windowE
libdlib.so.19.24.2:_ZN4dlib14tabbed_displayD0Ev
libdlib.so.19.24.2:_ZN4dlib14tabbed_displayD1Ev
libdlib.so.19.24.2:_ZN4dlib14tabbed_displayD2Ev
libdlib.so.19.24.2:_ZN4dlib15bigint_kernel_1C1ERKS0_
libdlib.so.19.24.2:_ZN4dlib15bigint_kernel_1C1Ej
libdlib.so.19.24.2:_ZN4dlib15bigint_kernel_1C1Ev
libdlib.so.19.24.2:_ZN4dlib15bigint_kernel_1C2ERKS0_
libdlib.so.19.24.2:_ZN4dlib15bigint_kernel_1C2Ej
libdlib.so.19.24.2:_ZN4dlib15bigint_kernel_1C2Ev
libdlib.so.19.24.2:_ZN4dlib15bigint_kernel_1D0Ev
libdlib.so.19.24.2:_ZN4dlib15bigint_kernel_1D1Ev
libdlib.so.19.24.2:_ZN4dlib15bigint_kernel_1D2Ev
libdlib.so.19.24.2:_ZN4dlib15bigint_kernel_1aSERKS0_
libdlib.so.19.24.2:_ZN4dlib15bigint_kernel_1aSEt
libdlib.so.19.24.2:_ZN4dlib15bigint_kernel_1dVERKS0_
libdlib.so.19.24.2:_ZN4dlib15bigint_kernel_1dVEt
libdlib.so.19.24.2:_ZN4dlib15bigint_kernel_1mIERKS0_
libdlib.so.19.24.2:_ZN4dlib15bigint_kernel_1mIEt
libdlib.so.19.24.2:_ZN4dlib15bigint_kernel_1mLERKS0_
libdlib.so.19.24.2:_ZN4dlib15bigint_kernel_1mLEt
libdlib.so.19.24.2:_ZN4dlib15bigint_kernel_1mmEi
libdlib.so.19.24.2:_ZN4dlib15bigint_kernel_1mmEv
libdlib.so.19.24.2:_ZN4dlib15bigint_kernel_1pLERKS0_
libdlib.so.19.24.2:_ZN4dlib15bigint_kernel_1pLEt
libdlib.so.19.24.2:_ZN4dlib15bigint_kernel_1ppEi
libdlib.so.19.24.2:_ZN4dlib15bigint_kernel_1ppEv
libdlib.so.19.24.2:_ZN4dlib15bigint_kernel_1rMERKS0_
libdlib.so.19.24.2:_ZN4dlib15bigint_kernel_1rMEt
libdlib.so.19.24.2:_ZN4dlib15bigint_kernel_2C1ERKS0_
libdlib.so.19.24.2:_ZN4dlib15bigint_kernel_2C1Ej
libdlib.so.19.24.2:_ZN4dlib15bigint_kernel_2C1Ev
libdlib.so.19.24.2:_ZN4dlib15bigint_kernel_2C2ERKS0_
libdlib.so.19.24.2:_ZN4dlib15bigint_kernel_2C2Ej
libdlib.so.19.24.2:_ZN4dlib15bigint_kernel_2C2Ev
libdlib.so.19.24.2:_ZN4dlib15bigint_kernel_2D0Ev
libdlib.so.19.24.2:_ZN4dlib15bigint_kernel_2D1Ev
libdlib.so.19.24.2:_ZN4dlib15bigint_kernel_2D2Ev
libdlib.so.19.24.2:_ZN4dlib15bigint_kernel_2aSERKS0_
libdlib.so.19.24.2:_ZN4dlib15bigint_kernel_2aSEt
libdlib.so.19.24.2:_ZN4dlib15bigint_kernel_2dVERKS0_
libdlib.so.19.24.2:_ZN4dlib15bigint_kernel_2dVEt
libdlib.so.19.24.2:_ZN4dlib15bigint_kernel_2mIERKS0_
libdlib.so.19.24.2:_ZN4dlib15bigint_kernel_2mIEt
libdlib.so.19.24.2:_ZN4dlib15bigint_kernel_2mLERKS0_
libdlib.so.19.24.2:_ZN4dlib15bigint_kernel_2mLEt
libdlib.so.19.24.2:_ZN4dlib15bigint_kernel_2mmEi
libdlib.so.19.24.2:_ZN4dlib15bigint_kernel_2mmEv
libdlib.so.19.24.2:_ZN4dlib15bigint_kernel_2pLERKS0_
libdlib.so.19.24.2:_ZN4dlib15bigint_kernel_2pLEt
libdlib.so.19.24.2:_ZN4dlib15bigint_kernel_2ppEi
libdlib.so.19.24.2:_ZN4dlib15bigint_kernel_2ppEv
libdlib.so.19.24.2:_ZN4dlib15bigint_kernel_2rMERKS0_
libdlib.so.19.24.2:_ZN4dlib15bigint_kernel_2rMEt
libdlib.so.19.24.2:_ZN4dlib15create_listenerERPNS_8listenerEtRKNSt7__cxx1112basic_stringIcSt11char_traitsIcESaIcEEE
libdlib.so.19.24.2:_ZN4dlib15create_listenerERSt10unique_ptrINS_8listenerESt14default_deleteIS1_EEtRKNSt7__cxx1112basic_stringIcSt11char_traitsIcESaIcEEE
libdlib.so.19.24.2:_ZN4dlib15drawable_window10on_keydownEmbm
libdlib.so.19.24.2:_ZN4dlib15drawable_window11on_mouse_upEmmll
libdlib.so.19.24.2:_ZN4dlib15drawable_window11on_wheel_upEm
libdlib.so.19.24.2:_ZN4dlib15drawable_window13on_focus_lostEv
libdlib.so.19.24.2:_ZN4dlib15drawable_window13on_mouse_downEmmllb
libdlib.so.19.24.2:_ZN4dlib15drawable_window13on_mouse_moveEmll
libdlib.so.19.24.2:_ZN4dlib15drawable_window13on_string_putERKNSt7__cxx1112basic_stringIwSt11char_traitsIwESaIwEEE
libdlib.so.19.24.2:_ZN4dlib15drawable_window13on_user_eventEPvi
libdlib.so.19.24.2:_ZN4dlib15drawable_window13on_wheel_downEm
libdlib.so.19.24.2:_ZN4dlib15drawable_window14on_mouse_enterEv
libdlib.so.19.24.2:_ZN4dlib15drawable_window14on_mouse_leaveEv
libdlib.so.19.24.2:_ZN4dlib15drawable_window15on_focus_gainedEv
libdlib.so.19.24.2:_ZN4dlib15drawable_window15on_window_movedEv
libdlib.so.19.24.2:_ZN4dlib15drawable_window17on_window_resizedEv
libdlib.so.19.24.2:_ZN4dlib15drawable_window20set_background_colorEmmm
libdlib.so.19.24.2:_ZN4dlib15drawable_window5paintERKNS_6canvasE
libdlib.so.19.24.2:_ZN4dlib15get_current_dirB5cxx11Ev
libdlib.so.19.24.2:_ZN4dlib15get_native_fontEv
libdlib.so.19.24.2:_ZN4dlib15list_box_helper8list_boxINSt7__cxx1112basic_stringIcSt11char_traitsIcESaIcEEEE13on_mouse_downEmmllb
libdlib.so.19.24.2:_ZN4dlib15list_box_helper8list_boxINSt7__cxx1112basic_stringIcSt11char_traitsIcESaIcEEEE13set_main_fontERKSt10shared_ptrINS_4fontEE
libdlib.so.19.24.2:_ZN4dlib15list_box_helper8list_boxINSt7__cxx1112basic_stringIcSt11char_traitsIcESaIcEEEE17set_click_handlerERKNS_18any_function_basicINS_2te11storage_sboILm16ELm8EEEFvmEEE
libdlib.so.19.24.2:_ZN4dlib15list_box_helper8list_boxINSt7__cxx1112basic_stringIcSt11char_traitsIcESaIcEEEE22enable_multiple_selectEv
libdlib.so.19.24.2:_ZN4dlib15list_box_helper8list_boxINSt7__cxx1112basic_stringIcSt11char_traitsIcESaIcEEEE23disable_multiple_selectEv
libdlib.so.19.24.2:_ZN4dlib15list_box_helper8list_boxINSt7__cxx1112basic_stringIcSt11char_traitsIcESaIcEEEE24set_double_click_handlerERKNS_18any_function_basicINS_2te11storage_sboILm16ELm8EEEFvmEEE
libdlib.so.19.24.2:_ZN4dlib15list_box_helper8list_boxINSt7__cxx1112basic_stringIcSt11char_traitsIcESaIcEEEE6selectEm
libdlib.so.19.24.2:_ZN4dlib15list_box_helper8list_boxINSt7__cxx1112basic_stringIcSt11char_traitsIcESaIcEEEE7elementEv
libdlib.so.19.24.2:_ZN4dlib15list_box_helper8list_boxINSt7__cxx1112basic_stringIcSt11char_traitsIcESaIcEEEE8unselectEm
libdlib.so.19.24.2:_ZN4dlib15list_box_helper8list_boxINSt7__cxx1112basic_stringIcSt11char_traitsIcESaIcEEEEC1ERNS_15drawable_windowE
libdlib.so.19.24.2:_ZN4dlib15list_box_helper8list_boxINSt7__cxx1112basic_stringIcSt11char_traitsIcESaIcEEEEC2ERNS_15drawable_windowE
libdlib.so.19.24.2:_ZN4dlib15list_box_helper8list_boxINSt7__cxx1112basic_stringIcSt11char_traitsIcESaIcEEEED0Ev
libdlib.so.19.24.2:_ZN4dlib15list_box_helper8list_boxINSt7__cxx1112basic_stringIcSt11char_traitsIcESaIcEEEED1Ev
libdlib.so.19.24.2:_ZN4dlib15list_box_helper8list_boxINSt7__cxx1112basic_stringIcSt11char_traitsIcESaIcEEEED2Ev
libdlib.so.19.24.2:_ZN4dlib15list_box_helper8list_boxINSt7__cxx1112basic_stringIjSt11char_traitsIjESaIjEEEE13on_mouse_downEmmllb
libdlib.so.19.24.2:_ZN4dlib15list_box_helper8list_boxINSt7__cxx1112basic_stringIjSt11char_traitsIjESaIjEEEE13set_main_fontERKSt10shared_ptrINS_4fontEE
libdlib.so.19.24.2:_ZN4dlib15list_box_helper8list_boxINSt7__cxx1112basic_stringIjSt11char_traitsIjESaIjEEEE17set_click_handlerERKNS_18any_function_basicINS_2te11storage_sboILm16ELm8EEEFvmEEE
libdlib.so.19.24.2:_ZN4dlib15list_box_helper8list_boxINSt7__cxx1112basic_stringIjSt11char_traitsIjESaIjEEEE22enable_multiple_selectEv
libdlib.so.19.24.2:_ZN4dlib15list_box_helper8list_boxINSt7__cxx1112basic_stringIjSt11char_traitsIjESaIjEEEE23disable_multiple_selectEv
libdlib.so.19.24.2:_ZN4dlib15list_box_helper8list_boxINSt7__cxx1112basic_stringIjSt11char_traitsIjESaIjEEEE24set_double_click_handlerERKNS_18any_function_basicINS_2te11storage_sboILm16ELm8EEEFvmEEE
libdlib.so.19.24.2:_ZN4dlib15list_box_helper8list_boxINSt7__cxx1112basic_stringIjSt11char_traitsIjESaIjEEEE6selectEm
libdlib.so.19.24.2:_ZN4dlib15list_box_helper8list_boxINSt7__cxx1112basic_stringIjSt11char_traitsIjESaIjEEEE7elementEv
libdlib.so.19.24.2:_ZN4dlib15list_box_helper8list_boxINSt7__cxx1112basic_stringIjSt11char_traitsIjESaIjEEEE8unselectEm
libdlib.so.19.24.2:_ZN4dlib15list_box_helper8list_boxINSt7__cxx1112basic_stringIjSt11char_traitsIjESaIjEEEEC1ERNS_15drawable_windowE
libdlib.so.19.24.2:_ZN4dlib15list_box_helper8list_boxINSt7__cxx1112basic_stringIjSt11char_traitsIjESaIjEEEEC2ERNS_15drawable_windowE
libdlib.so.19.24.2:_ZN4dlib15list_box_helper8list_boxINSt7__cxx1112basic_stringIjSt11char_traitsIjESaIjEEEED0Ev
libdlib.so.19.24.2:_ZN4dlib15list_box_helper8list_boxINSt7__cxx1112basic_stringIjSt11char_traitsIjESaIjEEEED1Ev
libdlib.so.19.24.2:_ZN4dlib15list_box_helper8list_boxINSt7__cxx1112basic_stringIjSt11char_traitsIjESaIjEEEED2Ev
libdlib.so.19.24.2:_ZN4dlib15list_box_helper8list_boxINSt7__cxx1112basic_stringIwSt11char_traitsIwESaIwEEEE13on_mouse_downEmmllb
libdlib.so.19.24.2:_ZN4dlib15list_box_helper8list_boxINSt7__cxx1112basic_stringIwSt11char_traitsIwESaIwEEEE13set_main_fontERKSt10shared_ptrINS_4fontEE
libdlib.so.19.24.2:_ZN4dlib15list_box_helper8list_boxINSt7__cxx1112basic_stringIwSt11char_traitsIwESaIwEEEE17set_click_handlerERKNS_18any_function_basicINS_2te11storage_sboILm16ELm8EEEFvmEEE
libdlib.so.19.24.2:_ZN4dlib15list_box_helper8list_boxINSt7__cxx1112basic_stringIwSt11char_traitsIwESaIwEEEE22enable_multiple_selectEv
libdlib.so.19.24.2:_ZN4dlib15list_box_helper8list_boxINSt7__cxx1112basic_stringIwSt11char_traitsIwESaIwEEEE23disable_multiple_selectEv
libdlib.so.19.24.2:_ZN4dlib15list_box_helper8list_boxINSt7__cxx1112basic_stringIwSt11char_traitsIwESaIwEEEE24set_double_click_handlerERKNS_18any_function_basicINS_2te11storage_sboILm16ELm8EEEFvmEEE
libdlib.so.19.24.2:_ZN4dlib15list_box_helper8list_boxINSt7__cxx1112basic_stringIwSt11char_traitsIwESaIwEEEE6selectEm
libdlib.so.19.24.2:_ZN4dlib15list_box_helper8list_boxINSt7__cxx1112basic_stringIwSt11char_traitsIwESaIwEEEE7elementEv
libdlib.so.19.24.2:_ZN4dlib15list_box_helper8list_boxINSt7__cxx1112basic_stringIwSt11char_traitsIwESaIwEEEE8unselectEm
libdlib.so.19.24.2:_ZN4dlib15list_box_helper8list_boxINSt7__cxx1112basic_stringIwSt11char_traitsIwESaIwEEEEC1ERNS_15drawable_windowE
libdlib.so.19.24.2:_ZN4dlib15list_box_helper8list_boxINSt7__cxx1112basic_stringIwSt11char_traitsIwESaIwEEEEC2ERNS_15drawable_windowE
libdlib.so.19.24.2:_ZN4dlib15list_box_helper8list_boxINSt7__cxx1112basic_stringIwSt11char_traitsIwESaIwEEEED0Ev
libdlib.so.19.24.2:_ZN4dlib15list_box_helper8list_boxINSt7__cxx1112basic_stringIwSt11char_traitsIwESaIwEEEED1Ev
libdlib.so.19.24.2:_ZN4dlib15list_box_helper8list_boxINSt7__cxx1112basic_stringIwSt11char_traitsIwESaIwEEEED2Ev
libdlib.so.19.24.2:_ZN4dlib15named_rectangle11wrap_aroundERKNS_9rectangleE
libdlib.so.19.24.2:_ZN4dlib15named_rectangle13set_main_fontERKSt10shared_ptrINS_4fontEE
libdlib.so.19.24.2:_ZN4dlib15named_rectangle21make_name_fit_in_rectEv
libdlib.so.19.24.2:_ZN4dlib15named_rectangle8set_nameERKNSt7__cxx1112basic_stringIcSt11char_traitsIcESaIcEEE
libdlib.so.19.24.2:_ZN4dlib15named_rectangle8set_nameERKNSt7__cxx1112basic_stringIjSt11char_traitsIjESaIjEEE
libdlib.so.19.24.2:_ZN4dlib15named_rectangle8set_nameERKNSt7__cxx1112basic_stringIwSt11char_traitsIwESaIwEEE
libdlib.so.19.24.2:_ZN4dlib15named_rectangle8set_sizeEmm
libdlib.so.19.24.2:_ZN4dlib15named_rectangleC1ERNS_15drawable_windowE
libdlib.so.19.24.2:_ZN4dlib15named_rectangleC2ERNS_15drawable_windowE
libdlib.so.19.24.2:_ZN4dlib15named_rectangleD0Ev
libdlib.so.19.24.2:_ZN4dlib15named_rectangleD1Ev
libdlib.so.19.24.2:_ZN4dlib15named_rectangleD2Ev
libdlib.so.19.24.2:_ZN4dlib15network_addressC1ERKNSt7__cxx1112basic_stringIcSt11char_traitsIcESaIcEEE
libdlib.so.19.24.2:_ZN4dlib15network_addressC2ERKNSt7__cxx1112basic_stringIcSt11char_traitsIcESaIcEEE
libdlib.so.19.24.2:_ZN4dlib15set_current_dirERKNSt7__cxx1112basic_stringIcSt11char_traitsIcESaIcEEE
libdlib.so.19.24.2:_ZN4dlib15sockets_startupEv
libdlib.so.19.24.2:_ZN4dlib15threaded_object11set_respawnEv
libdlib.so.19.24.2:_ZN4dlib15threaded_object13thread_helperEv
libdlib.so.19.24.2:_ZN4dlib15threaded_object4stopEv
libdlib.so.19.24.2:_ZN4dlib15threaded_object5pauseEv
libdlib.so.19.24.2:_ZN4dlib15threaded_object5startEv
libdlib.so.19.24.2:_ZN4dlib15threaded_object7restartEv
libdlib.so.19.24.2:_ZN4dlib15threaded_objectC1Ev
libdlib.so.19.24.2:_ZN4dlib15threaded_objectC2Ev
libdlib.so.19.24.2:_ZN4dlib15threaded_objectD0Ev
libdlib.so.19.24.2:_ZN4dlib15threaded_objectD1Ev
libdlib.so.19.24.2:_ZN4dlib15threaded_objectD2Ev
libdlib.so.19.24.2:_ZN4dlib15zoomable_region11on_h_scrollEv
libdlib.so.19.24.2:_ZN4dlib15zoomable_region11on_mouse_upEmmll
libdlib.so.19.24.2:_ZN4dlib15zoomable_region11on_v_scrollEv
libdlib.so.19.24.2:_ZN4dlib15zoomable_region11on_wheel_upEm
libdlib.so.19.24.2:_ZN4dlib15zoomable_region11set_z_orderEl
libdlib.so.19.24.2:_ZN4dlib15zoomable_region12redraw_graphEv
libdlib.so.19.24.2:_ZN4dlib15zoomable_region13adjust_originERKNS_6vectorIlLl2EEERKNS1_IdLl2EEE
libdlib.so.19.24.2:_ZN4dlib15zoomable_region13on_mouse_downEmmllb
libdlib.so.19.24.2:_ZN4dlib15zoomable_region13on_mouse_moveEmll
libdlib.so.19.24.2:_ZN4dlib15zoomable_region13on_wheel_downEm
libdlib.so.19.24.2:_ZN4dlib15zoomable_region14set_zoom_scaleEd
libdlib.so.19.24.2:_ZN4dlib15zoomable_region18set_max_zoom_scaleEd
libdlib.so.19.24.2:_ZN4dlib15zoomable_region18set_min_zoom_scaleEd
libdlib.so.19.24.2:_ZN4dlib15zoomable_region18set_zoom_incrementEd
libdlib.so.19.24.2:_ZN4dlib15zoomable_region29center_display_at_graph_pointERKNS_6vectorIdLl2EEE
libdlib.so.19.24.2:_ZN4dlib15zoomable_region4hideEv
libdlib.so.19.24.2:_ZN4dlib15zoomable_region4showEv
libdlib.so.19.24.2:_ZN4dlib15zoomable_region6enableEv
libdlib.so.19.24.2:_ZN4dlib15zoomable_region7disableEv
libdlib.so.19.24.2:_ZN4dlib15zoomable_region7set_posEll
libdlib.so.19.24.2:_ZN4dlib15zoomable_region8set_sizeEmm
libdlib.so.19.24.2:_ZN4dlib15zoomable_regionC1ERNS_15drawable_windowEm
libdlib.so.19.24.2:_ZN4dlib15zoomable_regionC2ERNS_15drawable_windowEm
libdlib.so.19.24.2:_ZN4dlib15zoomable_regionD0Ev
libdlib.so.19.24.2:_ZN4dlib15zoomable_regionD1Ev
libdlib.so.19.24.2:_ZN4dlib15zoomable_regionD2Ev
libdlib.so.19.24.2:_ZN4dlib16clip_peek_helperEP9_XDisplayP7_XEventPc
libdlib.so.19.24.2:_ZN4dlib16close_gracefullyEPNS_10connectionEm
libdlib.so.19.24.2:_ZN4dlib16close_gracefullyERSt10unique_ptrINS_10connectionESt14default_deleteIS1_EEm
libdlib.so.19.24.2:_ZN4dlib16create_directoryERKNSt7__cxx1112basic_stringIcSt11char_traitsIcESaIcEEE
libdlib.so.19.24.2:_ZN4dlib16directory_existsERKNSt7__cxx1112basic_stringIcSt11char_traitsIcESaIcEEE
libdlib.so.19.24.2:_ZN4dlib16draw_button_downERKNS_6canvasERKNS_9rectangleEh
libdlib.so.19.24.2:_ZN4dlib16get_global_clockEv
libdlib.so.19.24.2:_ZN4dlib16mouse_over_event13on_mouse_moveEmll
libdlib.so.19.24.2:_ZN4dlib16mouse_over_event13on_user_eventEi
libdlib.so.19.24.2:_ZN4dlib16mouse_over_event14on_mouse_leaveEv
libdlib.so.19.24.2:_ZN4dlib16mouse_over_eventD0Ev
libdlib.so.19.24.2:_ZN4dlib16mouse_over_eventD1Ev
libdlib.so.19.24.2:_ZN4dlib16mouse_over_eventD2Ev
libdlib.so.19.24.2:_ZN4dlib16put_on_clipboardERKNSt7__cxx1112basic_stringIcSt11char_traitsIcESaIcEEE
libdlib.so.19.24.2:_ZN4dlib16put_on_clipboardERKNSt7__cxx1112basic_stringIjSt11char_traitsIjESaIjEEE
libdlib.so.19.24.2:_ZN4dlib16put_on_clipboardERKNSt7__cxx1112basic_stringIwSt11char_traitsIwESaIwEEE
libdlib.so.19.24.2:_ZN4dlib17create_connectionERPNS_10connectionEtRKNSt7__cxx1112basic_stringIcSt11char_traitsIcESaIcEEEtSA_
libdlib.so.19.24.2:_ZN4dlib17create_connectionERSt10unique_ptrINS_10connectionESt14default_deleteIS1_EEtRKNSt7__cxx1112basic_stringIcSt11char_traitsIcESaIcEEEtSD_
libdlib.so.19.24.2:_ZN4dlib17png_buffer_readerEP14png_struct_defPhm
libdlib.so.19.24.2:_ZN4dlib17popup_menu_region10on_keydownEmbm
libdlib.so.19.24.2:_ZN4dlib17popup_menu_region13on_focus_lostEv
libdlib.so.19.24.2:_ZN4dlib17popup_menu_region13on_mouse_downEmmllb
libdlib.so.19.24.2:_ZN4dlib17popup_menu_region15on_focus_gainedEv
libdlib.so.19.24.2:_ZN4dlib17popup_menu_region15on_window_movedEv
libdlib.so.19.24.2:_ZN4dlib17popup_menu_region22on_menu_becomes_hiddenEv
libdlib.so.19.24.2:_ZN4dlib17popup_menu_region4hideEv
libdlib.so.19.24.2:_ZN4dlib17popup_menu_region4menuEv
libdlib.so.19.24.2:_ZN4dlib17popup_menu_region7disableEv
libdlib.so.19.24.2:_ZN4dlib17popup_menu_region8set_rectERKNS_9rectangleE
libdlib.so.19.24.2:_ZN4dlib17popup_menu_region8set_sizeEmm
libdlib.so.19.24.2:_ZN4dlib17popup_menu_regionC1ERNS_15drawable_windowE
libdlib.so.19.24.2:_ZN4dlib17popup_menu_regionC2ERNS_15drawable_windowE
libdlib.so.19.24.2:_ZN4dlib17popup_menu_regionD0Ev
libdlib.so.19.24.2:_ZN4dlib17popup_menu_regionD1Ev
libdlib.so.19.24.2:_ZN4dlib17popup_menu_regionD2Ev
libdlib.so.19.24.2:_ZN4dlib17scrollable_region11on_h_scrollEv
libdlib.so.19.24.2:_ZN4dlib17scrollable_region11on_mouse_upEmmll
libdlib.so.19.24.2:_ZN4dlib17scrollable_region11on_v_scrollEv
libdlib.so.19.24.2:_ZN4dlib17scrollable_region11on_wheel_upEm
libdlib.so.19.24.2:_ZN4dlib17scrollable_region11set_z_orderEl
libdlib.so.19.24.2:_ZN4dlib17scrollable_region13on_mouse_downEmmllb
libdlib.so.19.24.2:_ZN4dlib17scrollable_region13on_mouse_moveEmll
libdlib.so.19.24.2:_ZN4dlib17scrollable_region13on_wheel_downEm
libdlib.so.19.24.2:_ZN4dlib17scrollable_region14scroll_to_rectERKNS_9rectangleE
libdlib.so.19.24.2:_ZN4dlib17scrollable_region17enable_mouse_dragEv
libdlib.so.19.24.2:_ZN4dlib17scrollable_region18disable_mouse_dragEv
libdlib.so.19.24.2:_ZN4dlib17scrollable_region19set_total_rect_sizeEmm
libdlib.so.19.24.2:_ZN4dlib17scrollable_region23set_vertical_scroll_posEl
libdlib.so.19.24.2:_ZN4dlib17scrollable_region25set_horizontal_scroll_posEl
libdlib.so.19.24.2:_ZN4dlib17scrollable_region29set_vertical_scroll_incrementEm
libdlib.so.19.24.2:_ZN4dlib17scrollable_region31set_horizontal_scroll_incrementEm
libdlib.so.19.24.2:_ZN4dlib17scrollable_region41set_vertical_mouse_wheel_scroll_incrementEm
libdlib.so.19.24.2:_ZN4dlib17scrollable_region43set_horizontal_mouse_wheel_scroll_incrementEm
libdlib.so.19.24.2:_ZN4dlib17scrollable_region4hideEv
libdlib.so.19.24.2:_ZN4dlib17scrollable_region4showEv
libdlib.so.19.24.2:_ZN4dlib17scrollable_region6enableEv
libdlib.so.19.24.2:_ZN4dlib17scrollable_region7disableEv
libdlib.so.19.24.2:_ZN4dlib17scrollable_region7set_posEll
libdlib.so.19.24.2:_ZN4dlib17scrollable_region8set_sizeEmm
libdlib.so.19.24.2:_ZN4dlib17scrollable_regionC1ERNS_15drawable_windowEm
libdlib.so.19.24.2:_ZN4dlib17scrollable_regionC2ERNS_15drawable_windowEm
libdlib.so.19.24.2:_ZN4dlib17scrollable_regionD0Ev
libdlib.so.19.24.2:_ZN4dlib17scrollable_regionD1Ev
libdlib.so.19.24.2:_ZN4dlib17scrollable_regionD2Ev
libdlib.so.19.24.2:_ZN4dlib18get_from_clipboardERNSt7__cxx1112basic_stringIcSt11char_traitsIcESaIcEEE
libdlib.so.19.24.2:_ZN4dlib18get_from_clipboardERNSt7__cxx1112basic_stringIjSt11char_traitsIjESaIjEEE
libdlib.so.19.24.2:_ZN4dlib18get_from_clipboardERNSt7__cxx1112basic_stringIwSt11char_traitsIwESaIwEEE
libdlib.so.19.24.2:_ZN4dlib18get_local_hostnameERNSt7__cxx1112basic_stringIcSt11char_traitsIcESaIcEEE
libdlib.so.19.24.2:_ZN4dlib18load_mnist_datasetERKNSt7__cxx1112basic_stringIcSt11char_traitsIcESaIcEEERSt6vectorINS_6matrixIhLl0ELl0ENS_33memory_manager_stateless_kernel_1IcEENS_16row_major_layoutEEESaISD_EERS8_ImSaImEESG_SJ_
libdlib.so.19.24.2:_ZN4dlib18message_box_helper16blocking_box_win10initializeEv
libdlib.so.19.24.2:_ZN4dlib18message_box_helper16blocking_box_win8on_clickEv
libdlib.so.19.24.2:_ZN4dlib18message_box_helper16blocking_box_winC1ERKNSt7__cxx1112basic_stringIcSt11char_traitsIcESaIcEEES9_
libdlib.so.19.24.2:_ZN4dlib18message_box_helper16blocking_box_winC1ERKNSt7__cxx1112basic_stringIjSt11char_traitsIjESaIjEEES9_
libdlib.so.19.24.2:_ZN4dlib18message_box_helper16blocking_box_winC1ERKNSt7__cxx1112basic_stringIwSt11char_traitsIwESaIwEEES9_
libdlib.so.19.24.2:_ZN4dlib18message_box_helper16blocking_box_winC2ERKNSt7__cxx1112basic_stringIcSt11char_traitsIcESaIcEEES9_
libdlib.so.19.24.2:_ZN4dlib18message_box_helper16blocking_box_winC2ERKNSt7__cxx1112basic_stringIjSt11char_traitsIjESaIjEEES9_
libdlib.so.19.24.2:_ZN4dlib18message_box_helper16blocking_box_winC2ERKNSt7__cxx1112basic_stringIwSt11char_traitsIwESaIwEEES9_
libdlib.so.19.24.2:_ZN4dlib18message_box_helper16blocking_box_winD0Ev
libdlib.so.19.24.2:_ZN4dlib18message_box_helper16blocking_box_winD1Ev
libdlib.so.19.24.2:_ZN4dlib18message_box_helper16blocking_box_winD2Ev
libdlib.so.19.24.2:_ZN4dlib18message_box_helper7box_win10initializeEv
libdlib.so.19.24.2:_ZN4dlib18message_box_helper7box_win14deleter_threadEPv
libdlib.so.19.24.2:_ZN4dlib18message_box_helper7box_win15on_window_closeEv
libdlib.so.19.24.2:_ZN4dlib18message_box_helper7box_win8on_clickEv
libdlib.so.19.24.2:_ZN4dlib18message_box_helper7box_winC1ERKNSt7__cxx1112basic_stringIcSt11char_traitsIcESaIcEEES9_
libdlib.so.19.24.2:_ZN4dlib18message_box_helper7box_winC1ERKNSt7__cxx1112basic_stringIjSt11char_traitsIjESaIjEEES9_
libdlib.so.19.24.2:_ZN4dlib18message_box_helper7box_winC1ERKNSt7__cxx1112basic_stringIwSt11char_traitsIwESaIwEEES9_
libdlib.so.19.24.2:_ZN4dlib18message_box_helper7box_winC2ERKNSt7__cxx1112basic_stringIcSt11char_traitsIcESaIcEEES9_
libdlib.so.19.24.2:_ZN4dlib18message_box_helper7box_winC2ERKNSt7__cxx1112basic_stringIjSt11char_traitsIjESaIjEEES9_
libdlib.so.19.24.2:_ZN4dlib18message_box_helper7box_winC2ERKNSt7__cxx1112basic_stringIwSt11char_traitsIwESaIwEEES9_
libdlib.so.19.24.2:_ZN4dlib18message_box_helper7box_winD0Ev
libdlib.so.19.24.2:_ZN4dlib18message_box_helper7box_winD1Ev
libdlib.so.19.24.2:_ZN4dlib18message_box_helper7box_winD2Ev
libdlib.so.19.24.2:_ZN4dlib18parse_http_requestERSiRNS_15incoming_thingsEm
libdlib.so.19.24.2:_ZN4dlib18select_newest_fileERKNSt7__cxx1112basic_stringIcSt11char_traitsIcESaIcEEES7_
libdlib.so.19.24.2:_ZN4dlib18select_oldest_fileERKNSt7__cxx1112basic_stringIcSt11char_traitsIcESaIcEEES7_
libdlib.so.19.24.2:_ZN4dlib18timer_global_clock12adjust_delayEPNS_10timer_baseEm
libdlib.so.19.24.2:_ZN4dlib18timer_global_clock3addEPNS_10timer_baseE
libdlib.so.19.24.2:_ZN4dlib18timer_global_clock6removeEPNS_10timer_baseE
libdlib.so.19.24.2:_ZN4dlib18timer_global_clock6threadEv
libdlib.so.19.24.2:_ZN4dlib18timer_global_clockC1Ev
libdlib.so.19.24.2:_ZN4dlib18timer_global_clockC2Ev
libdlib.so.19.24.2:_ZN4dlib18timer_global_clockD0Ev
libdlib.so.19.24.2:_ZN4dlib18timer_global_clockD1Ev
libdlib.so.19.24.2:_ZN4dlib18timer_global_clockD2Ev
libdlib.so.19.24.2:_ZN4dlib18tokenizer_kernel_110set_streamERSi
libdlib.so.19.24.2:_ZN4dlib18tokenizer_kernel_120set_identifier_tokenERKNSt7__cxx1112basic_stringIcSt11char_traitsIcESaIcEEES8_
libdlib.so.19.24.2:_ZN4dlib18tokenizer_kernel_14swapERS0_
libdlib.so.19.24.2:_ZN4dlib18tokenizer_kernel_15clearEv
libdlib.so.19.24.2:_ZN4dlib18tokenizer_kernel_19get_tokenERiRNSt7__cxx1112basic_stringIcSt11char_traitsIcESaIcEEE
libdlib.so.19.24.2:_ZN4dlib18tokenizer_kernel_1C1Ev
libdlib.so.19.24.2:_ZN4dlib18tokenizer_kernel_1C2Ev
libdlib.so.19.24.2:_ZN4dlib18tokenizer_kernel_1D0Ev
libdlib.so.19.24.2:_ZN4dlib18tokenizer_kernel_1D1Ev
libdlib.so.19.24.2:_ZN4dlib18tokenizer_kernel_1D2Ev
libdlib.so.19.24.2:_ZN4dlib19bit_stream_kernel_116set_input_streamERSi
libdlib.so.19.24.2:_ZN4dlib19bit_stream_kernel_117set_output_streamERSo
libdlib.so.19.24.2:_ZN4dlib19bit_stream_kernel_14readERi
libdlib.so.19.24.2:_ZN4dlib19bit_stream_kernel_14swapERS0_
libdlib.so.19.24.2:_ZN4dlib19bit_stream_kernel_15clearEv
libdlib.so.19.24.2:_ZN4dlib19bit_stream_kernel_15closeEv
libdlib.so.19.24.2:_ZN4dlib19default_thread_poolEv
libdlib.so.19.24.2:_ZN4dlib19perspective_display11add_overlayERKSt6vectorINS0_11overlay_dotESaIS2_EE
libdlib.so.19.24.2:_ZN4dlib19perspective_display11add_overlayERKSt6vectorINS0_12overlay_lineESaIS2_EE
libdlib.so.19.24.2:_ZN4dlib19perspective_display11on_wheel_upEm
libdlib.so.19.24.2:_ZN4dlib19perspective_display13clear_overlayEv
libdlib.so.19.24.2:_ZN4dlib19perspective_display13on_mouse_downEmmllb
libdlib.so.19.24.2:_ZN4dlib19perspective_display13on_mouse_moveEmll
libdlib.so.19.24.2:_ZN4dlib19perspective_display13on_wheel_downEm
libdlib.so.19.24.2:_ZN4dlib19perspective_display30set_dot_double_clicked_handlerERKNS_18any_function_basicINS_2te11storage_sboILm16ELm8EEEFvRKNS_6vectorIdLl3EEEEEE
libdlib.so.19.24.2:_ZN4dlib19perspective_display8set_sizeEmm
libdlib.so.19.24.2:_ZN4dlib19perspective_displayC1ERNS_15drawable_windowE
libdlib.so.19.24.2:_ZN4dlib19perspective_displayC2ERNS_15drawable_windowE
libdlib.so.19.24.2:_ZN4dlib19perspective_displayD0Ev
libdlib.so.19.24.2:_ZN4dlib19perspective_displayD1Ev
libdlib.so.19.24.2:_ZN4dlib19perspective_displayD2Ev
libdlib.so.19.24.2:_ZN4dlib19write_http_responseERSoNS_15outgoing_thingsERKNSt7__cxx1112basic_stringIcSt11char_traitsIcESaIcEEE
libdlib.so.19.24.2:_ZN4dlib19write_http_responseERSoRKNS_16http_parse_errorE
libdlib.so.19.24.2:_ZN4dlib19write_http_responseERSoRKSt9exception
libdlib.so.19.24.2:_ZN4dlib20get_parent_directoryERKNS_4fileE
libdlib.so.19.24.2:_ZN4dlib20get_parent_directoryERKNS_9directoryE
libdlib.so.19.24.2:_ZN4dlib20multithreaded_object13thread_helperEv
libdlib.so.19.24.2:_ZN4dlib20multithreaded_object18raii_thread_helperC1ERS0_m
libdlib.so.19.24.2:_ZN4dlib20multithreaded_object18raii_thread_helperC2ERS0_m
libdlib.so.19.24.2:_ZN4dlib20multithreaded_object18raii_thread_helperD1Ev
libdlib.so.19.24.2:_ZN4dlib20multithreaded_object18raii_thread_helperD2Ev
libdlib.so.19.24.2:_ZN4dlib20multithreaded_object4stopEv
libdlib.so.19.24.2:_ZN4dlib20multithreaded_object5clearEv
libdlib.so.19.24.2:_ZN4dlib20multithreaded_object5pauseEv
libdlib.so.19.24.2:_ZN4dlib20multithreaded_object5startEv
libdlib.so.19.24.2:_ZN4dlib20multithreaded_objectC1Ev
libdlib.so.19.24.2:_ZN4dlib20multithreaded_objectC2Ev
libdlib.so.19.24.2:_ZN4dlib20multithreaded_objectD0Ev
libdlib.so.19.24.2:_ZN4dlib20multithreaded_objectD1Ev
libdlib.so.19.24.2:_ZN4dlib20multithreaded_objectD2Ev
libdlib.so.19.24.2:_ZN4dlib20open_file_box_helper7box_win12enter_folderERKNSt7__cxx1112basic_stringIcSt11char_traitsIcESaIcEEE
libdlib.so.19.24.2:_ZN4dlib20open_file_box_helper7box_win13on_dirs_clickEm
libdlib.so.19.24.2:_ZN4dlib20open_file_box_helper7box_win13on_open_clickEv
libdlib.so.19.24.2:_ZN4dlib20open_file_box_helper7box_win13on_root_clickEv
libdlib.so.19.24.2:_ZN4dlib20open_file_box_helper7box_win14deleter_threadEv
libdlib.so.19.24.2:_ZN4dlib20open_file_box_helper7box_win14on_files_clickEm
libdlib.so.19.24.2:_ZN4dlib20open_file_box_helper7box_win15on_cancel_clickEv
libdlib.so.19.24.2:_ZN4dlib20open_file_box_helper7box_win15on_window_closeEv
libdlib.so.19.24.2:_ZN4dlib20open_file_box_helper7box_win17on_window_resizedEv
libdlib.so.19.24.2:_ZN4dlib20open_file_box_helper7box_win20on_path_button_clickERNS_13toggle_buttonE
libdlib.so.19.24.2:_ZN4dlib20open_file_box_helper7box_win21on_files_double_clickEm
libdlib.so.19.24.2:_ZN4dlib20open_file_box_helper7box_win7set_dirERKNSt7__cxx1112basic_stringIcSt11char_traitsIcESaIcEEE
libdlib.so.19.24.2:_ZN4dlib20open_file_box_helper7box_win9set_sizesEv
libdlib.so.19.24.2:_ZN4dlib20open_file_box_helper7box_winC1ERKNSt7__cxx1112basic_stringIcSt11char_traitsIcESaIcEEEb
libdlib.so.19.24.2:_ZN4dlib20open_file_box_helper7box_winC2ERKNSt7__cxx1112basic_stringIcSt11char_traitsIcESaIcEEEb
libdlib.so.19.24.2:_ZN4dlib20open_file_box_helper7box_winD0Ev
libdlib.so.19.24.2:_ZN4dlib20open_file_box_helper7box_winD1Ev
libdlib.so.19.24.2:_ZN4dlib20open_file_box_helper7box_winD2Ev
libdlib.so.19.24.2:_ZN4dlib21convert_utf8_to_utf32ERKNSt7__cxx1112basic_stringIcSt11char_traitsIcESaIcEEE
libdlib.so.19.24.2:_ZN4dlib21draw_sunken_rectangleERKNS_6canvasERKNS_9rectangleEh
libdlib.so.19.24.2:_ZN4dlib21jpeg_saver_error_exitEP18jpeg_common_struct
libdlib.so.19.24.2:_ZN4dlib21load_cifar_10_datasetERKNSt7__cxx1112basic_stringIcSt11char_traitsIcESaIcEEERSt6vectorINS_6matrixINS_9rgb_pixelELl0ELl0ENS_33memory_manager_stateless_kernel_1IcEENS_16row_major_layoutEEESaISE_EERS8_ImSaImEESH_SK_
libdlib.so.19.24.2:_ZN4dlib21threads_kernel_shared11thread_poolEv
libdlib.so.19.24.2:_ZN4dlib21threads_kernel_shared14thread_starterEPv
libdlib.so.19.24.2:_ZN4dlib21threads_kernel_shared8threader14is_dlib_threadEm
libdlib.so.19.24.2:_ZN4dlib21threads_kernel_shared8threader17call_end_handlersEv
libdlib.so.19.24.2:_ZN4dlib21threads_kernel_shared8threader17create_new_threadEPFvPvES2_
libdlib.so.19.24.2:_ZN4dlib21threads_kernel_shared8threader17destruct_if_readyEv
libdlib.so.19.24.2:_ZN4dlib21threads_kernel_shared8threaderC1Ev
libdlib.so.19.24.2:_ZN4dlib21threads_kernel_shared8threaderC2Ev
libdlib.so.19.24.2:_ZN4dlib21threads_kernel_shared8threaderD1Ev
libdlib.so.19.24.2:_ZN4dlib21threads_kernel_shared8threaderD2Ev
libdlib.so.19.24.2:_ZN4dlib22bound_function_pointer5dummy7nonnullEv
libdlib.so.19.24.2:_ZN4dlib22global_function_search10get_next_xEv
libdlib.so.19.24.2:_ZN4dlib22global_function_search18set_solver_epsilonEd
libdlib.so.19.24.2:_ZN4dlib22global_function_search28set_relative_noise_magnitudeEd
libdlib.so.19.24.2:_ZN4dlib22global_function_search34set_pure_random_search_probabilityEd
libdlib.so.19.24.2:_ZN4dlib22global_function_search38set_monte_carlo_upper_bound_sample_numEm
libdlib.so.19.24.2:_ZN4dlib22global_function_search8set_seedEl
libdlib.so.19.24.2:_ZN4dlib22global_function_searchC1ERKNS_13function_specE
libdlib.so.19.24.2:_ZN4dlib22global_function_searchC1ERKSt6vectorINS_13function_specESaIS2_EE
libdlib.so.19.24.2:_ZN4dlib22global_function_searchC1ERKSt6vectorINS_13function_specESaIS2_EERKS1_IS1_INS_19function_evaluationESaIS7_EESaIS9_EEd
libdlib.so.19.24.2:_ZN4dlib22global_function_searchC2ERKNS_13function_specE
libdlib.so.19.24.2:_ZN4dlib22global_function_searchC2ERKSt6vectorINS_13function_specESaIS2_EE
libdlib.so.19.24.2:_ZN4dlib22global_function_searchC2ERKSt6vectorINS_13function_specESaIS2_EERKS1_IS1_INS_19function_evaluationESaIS7_EESaIS9_EEd
libdlib.so.19.24.2:_ZN4dlib22image_dataset_metadata18get_decoded_stringB5cxx11Ev
libdlib.so.19.24.2:_ZN4dlib22image_dataset_metadata27load_image_dataset_metadataERNS0_7datasetERKNSt7__cxx1112basic_stringIcSt11char_traitsIcESaIcEEE
libdlib.so.19.24.2:_ZN4dlib22image_dataset_metadata27save_image_dataset_metadataERKNS0_7datasetERKNSt7__cxx1112basic_stringIcSt11char_traitsIcESaIcEEE
libdlib.so.19.24.2:_ZN4dlib22image_dataset_metadata37create_image_metadata_stylesheet_fileERKNSt7__cxx1112basic_stringIcSt11char_traitsIcESaIcEEE
libdlib.so.19.24.2:_ZN4dlib22implementation_details16get_all_sub_dirsERKNS_9directoryEmRSt6vectorIS1_SaIS1_EES7_
libdlib.so.19.24.2:_ZN4dlib22jpeg_loader_error_exitEP18jpeg_common_struct
libdlib.so.19.24.2:_ZN4dlib22set_all_logging_levelsERKNS_9log_levelE
libdlib.so.19.24.2:_ZN4dlib23connect_timeout_helpers6threadEPv
libdlib.so.19.24.2:_ZN4dlib23set_all_logging_headersERKPFvRSoRKNSt7__cxx1112basic_stringIcSt11char_traitsIcESaIcEEERKNS_9log_levelEyE
libdlib.so.19.24.2:_ZN4dlib24convert_utf32_to_wstringERKNSt7__cxx1112basic_stringIjSt11char_traitsIjESaIjEEE
libdlib.so.19.24.2:_ZN4dlib24convert_wstring_to_utf32ERKNSt7__cxx1112basic_stringIwSt11char_traitsIwESaIwEEE
libdlib.so.19.24.2:_ZN4dlib24entropy_decoder_kernel_110get_targetEj
libdlib.so.19.24.2:_ZN4dlib24entropy_decoder_kernel_110set_streamERSi
libdlib.so.19.24.2:_ZN4dlib24entropy_decoder_kernel_15clearEv
libdlib.so.19.24.2:_ZN4dlib24entropy_decoder_kernel_16decodeEjj
libdlib.so.19.24.2:_ZN4dlib24entropy_decoder_kernel_1C1Ev
libdlib.so.19.24.2:_ZN4dlib24entropy_decoder_kernel_1C2Ev
libdlib.so.19.24.2:_ZN4dlib24entropy_decoder_kernel_1D0Ev
libdlib.so.19.24.2:_ZN4dlib24entropy_decoder_kernel_1D1Ev
libdlib.so.19.24.2:_ZN4dlib24entropy_decoder_kernel_1D2Ev
libdlib.so.19.24.2:_ZN4dlib24entropy_decoder_kernel_210get_targetEj
libdlib.so.19.24.2:_ZN4dlib24entropy_decoder_kernel_210set_streamERSi
libdlib.so.19.24.2:_ZN4dlib24entropy_decoder_kernel_25clearEv
libdlib.so.19.24.2:_ZN4dlib24entropy_decoder_kernel_26decodeEjj
libdlib.so.19.24.2:_ZN4dlib24entropy_decoder_kernel_2C1Ev
libdlib.so.19.24.2:_ZN4dlib24entropy_decoder_kernel_2C2Ev
libdlib.so.19.24.2:_ZN4dlib24entropy_decoder_kernel_2D0Ev
libdlib.so.19.24.2:_ZN4dlib24entropy_decoder_kernel_2D1Ev
libdlib.so.19.24.2:_ZN4dlib24entropy_decoder_kernel_2D2Ev
libdlib.so.19.24.2:_ZN4dlib24entropy_encoder_kernel_110set_streamERSo
libdlib.so.19.24.2:_ZN4dlib24entropy_encoder_kernel_15clearEv
libdlib.so.19.24.2:_ZN4dlib24entropy_encoder_kernel_15flushEv
libdlib.so.19.24.2:_ZN4dlib24entropy_encoder_kernel_16encodeEjjj
libdlib.so.19.24.2:_ZN4dlib24entropy_encoder_kernel_1C1Ev
libdlib.so.19.24.2:_ZN4dlib24entropy_encoder_kernel_1C2Ev
libdlib.so.19.24.2:_ZN4dlib24entropy_encoder_kernel_1D0Ev
libdlib.so.19.24.2:_ZN4dlib24entropy_encoder_kernel_1D1Ev
libdlib.so.19.24.2:_ZN4dlib24entropy_encoder_kernel_1D2Ev
libdlib.so.19.24.2:_ZN4dlib24entropy_encoder_kernel_210set_streamERSo
libdlib.so.19.24.2:_ZN4dlib24entropy_encoder_kernel_25clearEv
libdlib.so.19.24.2:_ZN4dlib24entropy_encoder_kernel_25flushEv
libdlib.so.19.24.2:_ZN4dlib24entropy_encoder_kernel_26encodeEjjj
libdlib.so.19.24.2:_ZN4dlib24entropy_encoder_kernel_2C1Ev
libdlib.so.19.24.2:_ZN4dlib24entropy_encoder_kernel_2C2Ev
libdlib.so.19.24.2:_ZN4dlib24entropy_encoder_kernel_2D0Ev
libdlib.so.19.24.2:_ZN4dlib24entropy_encoder_kernel_2D1Ev
libdlib.so.19.24.2:_ZN4dlib24entropy_encoder_kernel_2D2Ev
libdlib.so.19.24.2:_ZN4dlib24find_optimal_rect_filterERKSt6vectorINS_9rectangleESaIS1_EEd
libdlib.so.19.24.2:_ZN4dlib24sockstreambuf_unbuffered5uflowEv
libdlib.so.19.24.2:_ZN4dlib24sockstreambuf_unbuffered6xsgetnEPcl
libdlib.so.19.24.2:_ZN4dlib24sockstreambuf_unbuffered6xsputnEPKcl
libdlib.so.19.24.2:_ZN4dlib24sockstreambuf_unbuffered8overflowEi
libdlib.so.19.24.2:_ZN4dlib24sockstreambuf_unbuffered9pbackfailEi
libdlib.so.19.24.2:_ZN4dlib24sockstreambuf_unbuffered9underflowEv
libdlib.so.19.24.2:_ZN4dlib25auto_train_rbf_classifierESt6vectorINS_6matrixIdLl0ELl1ENS_33memory_manager_stateless_kernel_1IcEENS_16row_major_layoutEEESaIS5_EES0_IdSaIdEENSt6chrono8durationIlSt5ratioILl1ELl1000000000EEEEb
libdlib.so.19.24.2:_ZN4dlib25gui_core_kernel_2_globals11global_dataEv
libdlib.so.19.24.2:_ZN4dlib25gui_core_kernel_2_globals12global_mutexEv
libdlib.so.19.24.2:_ZN4dlib25gui_core_kernel_2_globals16index_to_modmaskEm
libdlib.so.19.24.2:_ZN4dlib25gui_core_kernel_2_globals20event_handler_thread13event_handlerEv
libdlib.so.19.24.2:_ZN4dlib25gui_core_kernel_2_globals20event_handler_thread23init_keyboard_mod_masksEv
libdlib.so.19.24.2:_ZN4dlib25gui_core_kernel_2_globals22XCheckIfEventPredicateEP9_XDisplayP7_XEventPc
libdlib.so.19.24.2:_ZN4dlib25gui_core_kernel_2_globals29trigger_user_event_threadprocEPv
libdlib.so.19.24.2:_ZN4dlib25unichar_to_surrogate_pairEjRjS0_
libdlib.so.19.24.2:_ZN4dlib26logger_config_file_helpers15get_file_streamERKNSt7__cxx1112basic_stringIcSt11char_traitsIcESaIcEEE
libdlib.so.19.24.2:_ZN4dlib26logger_config_file_helpers19string_to_log_levelERKNSt7__cxx1112basic_stringIcSt11char_traitsIcESaIcEEE
libdlib.so.19.24.2:_ZN4dlib26logger_config_file_helpers20configure_sub_blocksERKNS_22config_reader_kernel_1INS_12map_kernel_1INSt7__cxx1112basic_stringIcSt11char_traitsIcESaIcEEES8_NS_27binary_search_tree_kernel_2IS8_S8_NS_33memory_manager_stateless_kernel_1IcEESt4lessIS8_EEESB_EENS2_IS8_PvNS9_IS8_SG_SB_SD_EESB_EENS_18tokenizer_kernel_1EEERKS8_
libdlib.so.19.24.2:_ZN4dlib26thread_pool_implementation13shutdown_poolEv
libdlib.so.19.24.2:_ZN4dlib26thread_pool_implementation17add_task_internalERKNS_22bound_function_pointerERSt10shared_ptrINS0_20function_object_copyEE
libdlib.so.19.24.2:_ZN4dlib26thread_pool_implementation17make_next_task_idEl
libdlib.so.19.24.2:_ZN4dlib26thread_pool_implementation6threadEv
libdlib.so.19.24.2:_ZN4dlib26thread_pool_implementationC1Em
libdlib.so.19.24.2:_ZN4dlib26thread_pool_implementationC2Em
libdlib.so.19.24.2:_ZN4dlib26thread_pool_implementationD1Ev
libdlib.so.19.24.2:_ZN4dlib26thread_pool_implementationD2Ev
libdlib.so.19.24.2:_ZN4dlib27configure_loggers_from_fileERKNS_22config_reader_kernel_1INS_12map_kernel_1INSt7__cxx1112basic_stringIcSt11char_traitsIcESaIcEEES7_NS_27binary_search_tree_kernel_2IS7_S7_NS_33memory_manager_stateless_kernel_1IcEESt4lessIS7_EEESA_EENS1_IS7_PvNS8_IS7_SF_SA_SC_EESA_EENS_18tokenizer_kernel_1EEE
libdlib.so.19.24.2:_ZN4dlib27configure_loggers_from_fileERKNSt7__cxx1112basic_stringIcSt11char_traitsIcESaIcEEE
libdlib.so.19.24.2:_ZN4dlib27convert_mbstring_to_wstringERKNSt7__cxx1112basic_stringIcSt11char_traitsIcESaIcEEE
libdlib.so.19.24.2:_ZN4dlib27convert_wstring_to_mbstringERKNSt7__cxx1112basic_stringIwSt11char_traitsIwESaIwEEE
libdlib.so.19.24.2:_ZN4dlib27function_evaluation_request3setEd
libdlib.so.19.24.2:_ZN4dlib27function_evaluation_request4swapERS0_
libdlib.so.19.24.2:_ZN4dlib27function_evaluation_requestC1EOS0_
libdlib.so.19.24.2:_ZN4dlib27function_evaluation_requestC2EOS0_
libdlib.so.19.24.2:_ZN4dlib27function_evaluation_requestD1Ev
libdlib.so.19.24.2:_ZN4dlib27function_evaluation_requestD2Ev
libdlib.so.19.24.2:_ZN4dlib27function_evaluation_requestaSEOS0_
libdlib.so.19.24.2:_ZN4dlib27print_default_logger_headerERSoRKNSt7__cxx1112basic_stringIcSt11char_traitsIcESaIcEEERKNS_9log_levelEy
libdlib.so.19.24.2:_ZN4dlib28find_optimal_momentum_filterERKSt6vectorIS0_IdSaIdEESaIS2_EEd
libdlib.so.19.24.2:_ZN4dlib28find_optimal_momentum_filterERKSt6vectorIdSaIdEEd
libdlib.so.19.24.2:_ZN4dlib28print_datetime_logger_headerERSoRKNSt7__cxx1112basic_stringIcSt11char_traitsIcESaIcEEERKNS_9log_levelEy
libdlib.so.19.24.2:_ZN4dlib29dlib_create_new_thread_helperINS_15threaded_objectEXadL_ZNS1_13thread_helperEvEEEEvPv
libdlib.so.19.24.2:_ZN4dlib29dlib_create_new_thread_helperINS_20multithreaded_objectEXadL_ZNS1_13thread_helperEvEEEEvPv
libdlib.so.19.24.2:_ZN4dlib29dlib_create_new_thread_helperINS_20open_file_box_helper7box_winEXadL_ZNS2_14deleter_threadEvEEEEvPv
libdlib.so.19.24.2:_ZN4dlib29dnn_prefer_fastest_algorithmsEv
libdlib.so.19.24.2:_ZN4dlib29threads_kernel_shared_helpers12spawn_threadEPFvPvES1_
libdlib.so.19.24.2:_ZN4dlib29threads_kernel_shared_helpers14thread_starterEPv
libdlib.so.19.24.2:_ZN4dlib2tt10leaky_reluERNS_6tensorERKS1_f
libdlib.so.19.24.2:_ZN4dlib2tt10scale_rowsERNS_6tensorERKS1_S4_
libdlib.so.19.24.2:_ZN4dlib2tt11copy_tensorEbRNS_6tensorEmRKS1_mm
libdlib.so.19.24.2:_ZN4dlib2tt11scale_rows2EfRNS_6tensorERKS1_S4_S4_S4_
libdlib.so.19.24.2:_ZN4dlib2tt11softmax_allERNS_6tensorERKS1_
libdlib.so.19.24.2:_ZN4dlib2tt11tensor_rand12fill_uniformERNS_6tensorE
libdlib.so.19.24.2:_ZN4dlib2tt11tensor_rand13fill_gaussianERNS_6tensorEff
libdlib.so.19.24.2:_ZN4dlib2tt11tensor_randC1Ey
libdlib.so.19.24.2:_ZN4dlib2tt11tensor_randC2Ey
libdlib.so.19.24.2:_ZN4dlib2tt12clipped_reluERNS_6tensorERKS1_f
libdlib.so.19.24.2:_ZN4dlib2tt12elu_gradientERNS_6tensorERKS1_S4_f
libdlib.so.19.24.2:_ZN4dlib2tt13gelu_gradientERNS_6tensorERKS1_S4_
libdlib.so.19.24.2:_ZN4dlib2tt13inverse_normsERNS_16resizable_tensorERKNS_6tensorEd
libdlib.so.19.24.2:_ZN4dlib2tt13mish_gradientERNS_6tensorERKS1_S4_
libdlib.so.19.24.2:_ZN4dlib2tt13multiply_convEbRNS_6tensorERKS1_S4_
libdlib.so.19.24.2:_ZN4dlib2tt13relu_gradientERNS_6tensorERKS1_S4_
libdlib.so.19.24.2:_ZN4dlib2tt13scale_columnsERNS_6tensorERKS1_S4_
libdlib.so.19.24.2:_ZN4dlib2tt13silu_gradientERNS_6tensorERKS1_S4_
libdlib.so.19.24.2:_ZN4dlib2tt13tanh_gradientERNS_6tensorERKS1_S4_
libdlib.so.19.24.2:_ZN4dlib2tt14prelu_gradientERNS_6tensorERKS1_S4_S4_S2_
libdlib.so.19.24.2:_ZN4dlib2tt14reorg_gradientERNS_6tensorEiiRKS1_
libdlib.so.19.24.2:_ZN4dlib2tt14scale_channelsEbRNS_6tensorERKS1_S4_
libdlib.so.19.24.2:_ZN4dlib2tt14smelu_gradientERNS_6tensorERKS1_S4_f
libdlib.so.19.24.2:_ZN4dlib2tt15batch_normalizeEdRNS_16resizable_tensorES2_S2_dS2_S2_RKNS_6tensorES5_S5_
libdlib.so.19.24.2:_ZN4dlib2tt15layer_normalizeEdRNS_16resizable_tensorES2_S2_RKNS_6tensorES5_S5_
libdlib.so.19.24.2:_ZN4dlib2tt15resize_bilinearERNS_6tensorEllRKS1_ll
libdlib.so.19.24.2:_ZN4dlib2tt16affine_transformERKNS_9rectangleERNS_6tensorERKS4_S7_S7_fff
libdlib.so.19.24.2:_ZN4dlib2tt16affine_transformERNS_6tensorERKS1_S4_S4_
libdlib.so.19.24.2:_ZN4dlib2tt16affine_transformERNS_6tensorERKS1_S4_S4_fff
libdlib.so.19.24.2:_ZN4dlib2tt16affine_transformERNS_6tensorERKS1_S4_S4_ffff
libdlib.so.19.24.2:_ZN4dlib2tt16affine_transformERNS_6tensorERKS1_S4_ff
libdlib.so.19.24.2:_ZN4dlib2tt16affine_transformERNS_6tensorERKS1_S4_fff
libdlib.so.19.24.2:_ZN4dlib2tt16affine_transformERNS_6tensorERKS1_f
libdlib.so.19.24.2:_ZN4dlib2tt16affine_transformERNS_6tensorERKS1_ff
libdlib.so.19.24.2:_ZN4dlib2tt16sigmoid_gradientERNS_6tensorERKS1_S4_
libdlib.so.19.24.2:_ZN4dlib2tt16softmax_gradientERNS_6tensorERKS1_S4_
libdlib.so.19.24.2:_ZN4dlib2tt19compute_adam_updateEmmRNS_6tensorES2_S2_fffffRKS1_S4_
libdlib.so.19.24.2:_ZN4dlib2tt19leaky_relu_gradientERNS_6tensorERKS1_S4_f
libdlib.so.19.24.2:_ZN4dlib2tt20assign_bias_gradientERNS_6tensorERKS1_
libdlib.so.19.24.2:_ZN4dlib2tt20batch_normalize_convEdRNS_16resizable_tensorES2_S2_dS2_S2_RKNS_6tensorES5_S5_
libdlib.so.19.24.2:_ZN4dlib2tt20multiply_zero_paddedEbRNS_6tensorERKS1_S4_
libdlib.so.19.24.2:_ZN4dlib2tt20softmax_all_gradientERNS_6tensorERKS1_S4_
libdlib.so.19.24.2:_ZN4dlib2tt21affine_transform_convERNS_6tensorERKS1_S4_S4_
libdlib.so.19.24.2:_ZN4dlib2tt21clipped_relu_gradientERNS_6tensorERKS1_S4_f
libdlib.so.19.24.2:_ZN4dlib2tt22affine_transform_rangeEmmRNS_6tensorERKS1_S4_S4_fff
libdlib.so.19.24.2:_ZN4dlib2tt24batch_normalize_gradientEdRKNS_6tensorES3_S3_S3_S3_RS1_S4_S4_
libdlib.so.19.24.2:_ZN4dlib2tt24layer_normalize_gradientEdRKNS_6tensorES3_S3_S3_S3_RS1_S4_S4_
libdlib.so.19.24.2:_ZN4dlib2tt24resize_bilinear_gradientERNS_6tensorEllRKS1_ll
libdlib.so.19.24.2:_ZN4dlib2tt25assign_conv_bias_gradientERNS_6tensorERKS1_
libdlib.so.19.24.2:_ZN4dlib2tt25batch_normalize_inferenceEdRNS_16resizable_tensorERKNS_6tensorES5_S5_S5_S5_
libdlib.so.19.24.2:_ZN4dlib2tt29batch_normalize_conv_gradientEdRKNS_6tensorES3_S3_S3_S3_RS1_S4_S4_
libdlib.so.19.24.2:_ZN4dlib2tt30batch_normalize_conv_inferenceEdRNS_16resizable_tensorERKNS_6tensorES5_S5_S5_S5_
libdlib.so.19.24.2:_ZN4dlib2tt3addERNS_6tensorERKS1_S4_
libdlib.so.19.24.2:_ZN4dlib2tt3addEfRNS_6tensorEfRKS1_
libdlib.so.19.24.2:_ZN4dlib2tt3dotERKNS_6tensorES3_RS1_m
libdlib.so.19.24.2:_ZN4dlib2tt3eluERNS_6tensorERKS1_f
libdlib.so.19.24.2:_ZN4dlib2tt3expERNS_6tensorERKS1_
libdlib.so.19.24.2:_ZN4dlib2tt3invclERKNS_6tensorERNS_16resizable_tensorE
libdlib.so.19.24.2:_ZN4dlib2tt3logERNS_6tensorERKS1_
libdlib.so.19.24.2:_ZN4dlib2tt4geluERNS_6tensorERKS1_
libdlib.so.19.24.2:_ZN4dlib2tt4gemmEfRNS_6tensorEfRKS1_bS4_b
libdlib.so.19.24.2:_ZN4dlib2tt4mishERNS_6tensorERKS1_
libdlib.so.19.24.2:_ZN4dlib2tt4reluERNS_6tensorERKS1_
libdlib.so.19.24.2:_ZN4dlib2tt4siluERNS_6tensorERKS1_
libdlib.so.19.24.2:_ZN4dlib2tt4tanhERNS_6tensorERKS1_
libdlib.so.19.24.2:_ZN4dlib2tt5log10ERNS_6tensorERKS1_
libdlib.so.19.24.2:_ZN4dlib2tt5preluERNS_6tensorERKS1_S4_
libdlib.so.19.24.2:_ZN4dlib2tt5reorgERNS_6tensorEiiRKS1_
libdlib.so.19.24.2:_ZN4dlib2tt5smeluERNS_6tensorERKS1_f
libdlib.so.19.24.2:_ZN4dlib2tt7sigmoidERNS_6tensorERKS1_
libdlib.so.19.24.2:_ZN4dlib2tt7softmaxERNS_6tensorERKS1_
libdlib.so.19.24.2:_ZN4dlib2tt8multiplyEbRNS_6tensorERKS1_S4_
libdlib.so.19.24.2:_ZN4dlib2tt9dot_prodsERNS_16resizable_tensorERKNS_6tensorES5_
libdlib.so.19.24.2:_ZN4dlib2tt9dot_prodsEbRNS_6tensorERKS1_S4_
libdlib.so.19.24.2:_ZN4dlib2tt9thresholdERNS_6tensorEf
libdlib.so.19.24.2:_ZN4dlib30set_all_logging_output_streamsERSo
libdlib.so.19.24.2:_ZN4dlib31png_loader_user_error_fn_silentEP14png_struct_defPKc
libdlib.so.19.24.2:_ZN4dlib31png_reader_user_error_fn_silentEP14png_struct_defPKc
libdlib.so.19.24.2:_ZN4dlib31structural_svm_problem_threadedINS_6matrixIdLl0ELl1ENS_33memory_manager_stateless_kernel_1IcEENS_16row_major_layoutEEESt6vectorISt4pairImdESaIS8_EEE6binder11call_oracleEll
libdlib.so.19.24.2:_ZN4dlib33png_loader_user_warning_fn_silentEP14png_struct_defPKc
libdlib.so.19.24.2:_ZN4dlib33png_reader_user_warning_fn_silentEP14png_struct_defPKc
libdlib.so.19.24.2:_ZN4dlib33set_dnn_prefer_fastest_algorithmsEv
libdlib.so.19.24.2:_ZN4dlib34set_dnn_prefer_smallest_algorithmsEv
libdlib.so.19.24.2:_ZN4dlib3cpu10leaky_reluERNS_6tensorERKS1_f
libdlib.so.19.24.2:_ZN4dlib3cpu11copy_tensorEbRNS_6tensorEmRKS1_mm
libdlib.so.19.24.2:_ZN4dlib3cpu11softmax_allERNS_6tensorERKS1_
libdlib.so.19.24.2:_ZN4dlib3cpu11tensor_conv21get_gradient_for_dataEbRKNS_6tensorES4_RS2_
libdlib.so.19.24.2:_ZN4dlib3cpu11tensor_conv24get_gradient_for_filtersEbRKNS_6tensorES4_RS2_
libdlib.so.19.24.2:_ZN4dlib3cpu11tensor_convclEbRNS_16resizable_tensorERKNS_6tensorES6_
libdlib.so.19.24.2:_ZN4dlib3cpu11tensor_convclEbRNS_16resizable_tensorERKNS_6tensorES6_S6_
libdlib.so.19.24.2:_ZN4dlib3cpu11tensor_convclEbRNS_6tensorERKS2_S5_
libdlib.so.19.24.2:_ZN4dlib3cpu11tensor_convclEbRNS_6tensorERKS2_S5_S5_
libdlib.so.19.24.2:_ZN4dlib3cpu12clipped_reluERNS_6tensorERKS1_f
libdlib.so.19.24.2:_ZN4dlib3cpu12elu_gradientERNS_6tensorERKS1_S4_f
libdlib.so.19.24.2:_ZN4dlib3cpu13gelu_gradientERNS_6tensorERKS1_S4_
libdlib.so.19.24.2:_ZN4dlib3cpu13mish_gradientERNS_6tensorERKS1_S4_
libdlib.so.19.24.2:_ZN4dlib3cpu13multiply_convEbRNS_6tensorERKS1_S4_
libdlib.so.19.24.2:_ZN4dlib3cpu13relu_gradientERNS_6tensorERKS1_S4_
libdlib.so.19.24.2:_ZN4dlib3cpu13silu_gradientERNS_6tensorERKS1_S4_
libdlib.so.19.24.2:_ZN4dlib3cpu13tanh_gradientERNS_6tensorERKS1_S4_
libdlib.so.19.24.2:_ZN4dlib3cpu14prelu_gradientERNS_6tensorERKS1_S4_S4_S2_
libdlib.so.19.24.2:_ZN4dlib3cpu14reorg_gradientERNS_6tensorEiiRKS1_
libdlib.so.19.24.2:_ZN4dlib3cpu14scale_channelsEbRNS_6tensorERKS1_S4_
libdlib.so.19.24.2:_ZN4dlib3cpu14smelu_gradientERNS_6tensorERKS1_S4_f
libdlib.so.19.24.2:_ZN4dlib3cpu15batch_normalizeEdRNS_16resizable_tensorES2_S2_dS2_S2_RKNS_6tensorES5_S5_
libdlib.so.19.24.2:_ZN4dlib3cpu15layer_normalizeEdRNS_16resizable_tensorES2_S2_RKNS_6tensorES5_S5_
libdlib.so.19.24.2:_ZN4dlib3cpu15resize_bilinearERNS_6tensorExxRKS1_xx
libdlib.so.19.24.2:_ZN4dlib3cpu16affine_transformERKNS_9rectangleERNS_6tensorERKS4_S7_S7_fff
libdlib.so.19.24.2:_ZN4dlib3cpu16affine_transformERNS_6tensorERKS1_S4_S4_
libdlib.so.19.24.2:_ZN4dlib3cpu16affine_transformERNS_6tensorERKS1_S4_S4_ffff
libdlib.so.19.24.2:_ZN4dlib3cpu16affine_transformERNS_6tensorERKS1_S4_fff
libdlib.so.19.24.2:_ZN4dlib3cpu16affine_transformERNS_6tensorERKS1_ff
libdlib.so.19.24.2:_ZN4dlib3cpu16sigmoid_gradientERNS_6tensorERKS1_S4_
libdlib.so.19.24.2:_ZN4dlib3cpu16softmax_gradientERNS_6tensorERKS1_S4_
libdlib.so.19.24.2:_ZN4dlib3cpu19compute_adam_updateEmmRNS_6tensorES2_S2_fffffRKS1_S4_
libdlib.so.19.24.2:_ZN4dlib3cpu19leaky_relu_gradientERNS_6tensorERKS1_S4_f
libdlib.so.19.24.2:_ZN4dlib3cpu20assign_bias_gradientERNS_6tensorERKS1_
libdlib.so.19.24.2:_ZN4dlib3cpu20batch_normalize_convEdRNS_16resizable_tensorES2_S2_dS2_S2_RKNS_6tensorES5_S5_
libdlib.so.19.24.2:_ZN4dlib3cpu20multiply_zero_paddedEbRNS_6tensorERKS1_S4_
libdlib.so.19.24.2:_ZN4dlib3cpu20softmax_all_gradientERNS_6tensorERKS1_S4_
libdlib.so.19.24.2:_ZN4dlib3cpu21affine_transform_convERNS_6tensorERKS1_S4_S4_
libdlib.so.19.24.2:_ZN4dlib3cpu21clipped_relu_gradientERNS_6tensorERKS1_S4_f
libdlib.so.19.24.2:_ZN4dlib3cpu22affine_transform_rangeEmmRNS_6tensorERKS1_S4_S4_fff
libdlib.so.19.24.2:_ZN4dlib3cpu24batch_normalize_gradientEdRKNS_6tensorES3_S3_S3_S3_RS1_S4_S4_
libdlib.so.19.24.2:_ZN4dlib3cpu24layer_normalize_gradientEdRKNS_6tensorES3_S3_S3_S3_RS1_S4_S4_
libdlib.so.19.24.2:_ZN4dlib3cpu24resize_bilinear_gradientERNS_6tensorExxRKS1_xx
libdlib.so.19.24.2:_ZN4dlib3cpu25assign_conv_bias_gradientERNS_6tensorERKS1_
libdlib.so.19.24.2:_ZN4dlib3cpu25batch_normalize_inferenceEdRNS_16resizable_tensorERKNS_6tensorES5_S5_S5_S5_
libdlib.so.19.24.2:_ZN4dlib3cpu29batch_normalize_conv_gradientEdRKNS_6tensorES3_S3_S3_S3_RS1_S4_S4_
libdlib.so.19.24.2:_ZN4dlib3cpu30batch_normalize_conv_inferenceEdRNS_16resizable_tensorERKNS_6tensorES5_S5_S5_S5_
libdlib.so.19.24.2:_ZN4dlib3cpu3addERNS_6tensorERKS1_S4_
libdlib.so.19.24.2:_ZN4dlib3cpu3addEfRNS_6tensorEfRKS1_
libdlib.so.19.24.2:_ZN4dlib3cpu3dotERKNS_6tensorES3_RS1_m
libdlib.so.19.24.2:_ZN4dlib3cpu3eluERNS_6tensorERKS1_f
libdlib.so.19.24.2:_ZN4dlib3cpu4geluERNS_6tensorERKS1_
libdlib.so.19.24.2:_ZN4dlib3cpu4mishERNS_6tensorERKS1_
libdlib.so.19.24.2:_ZN4dlib3cpu4reluERNS_6tensorERKS1_
libdlib.so.19.24.2:_ZN4dlib3cpu4siluERNS_6tensorERKS1_
libdlib.so.19.24.2:_ZN4dlib3cpu4tanhERNS_6tensorERKS1_
libdlib.so.19.24.2:_ZN4dlib3cpu5preluERNS_6tensorERKS1_S4_
libdlib.so.19.24.2:_ZN4dlib3cpu5reorgERNS_6tensorEiiRKS1_
libdlib.so.19.24.2:_ZN4dlib3cpu5smeluERNS_6tensorERKS1_f
libdlib.so.19.24.2:_ZN4dlib3cpu6ttimpl16softmax_gradientEllRNS_6tensorERKS2_S5_
libdlib.so.19.24.2:_ZN4dlib3cpu6ttimpl7softmaxEllRNS_6tensorERKS2_
libdlib.so.19.24.2:_ZN4dlib3cpu7col2imgERKNS_6matrixIfLl0ELl0ENS_33memory_manager_stateless_kernel_1IcEENS_16row_major_layoutEEERNS_6tensorElllllll
libdlib.so.19.24.2:_ZN4dlib3cpu7img2colERNS_6matrixIfLl0ELl0ENS_33memory_manager_stateless_kernel_1IcEENS_16row_major_layoutEEERKNS_6tensorElllllll
libdlib.so.19.24.2:_ZN4dlib3cpu7pooling12get_gradientERKNS_6tensorES4_S4_RS2_
libdlib.so.19.24.2:_ZN4dlib3cpu7pooling17setup_avg_poolingEiiiiii
libdlib.so.19.24.2:_ZN4dlib3cpu7pooling17setup_max_poolingEiiiiii
libdlib.so.19.24.2:_ZN4dlib3cpu7pooling5clearEv
libdlib.so.19.24.2:_ZN4dlib3cpu7poolingC1Ev
libdlib.so.19.24.2:_ZN4dlib3cpu7poolingC2Ev
libdlib.so.19.24.2:_ZN4dlib3cpu7poolingclERNS_16resizable_tensorERKNS_6tensorE
libdlib.so.19.24.2:_ZN4dlib3cpu7sigmoidERNS_6tensorERKS1_
libdlib.so.19.24.2:_ZN4dlib3cpu7softmaxERNS_6tensorERKS1_
libdlib.so.19.24.2:_ZN4dlib3cpu8multiplyEbRNS_6tensorERKS1_S4_
libdlib.so.19.24.2:_ZN4dlib3cpu9thresholdERNS_6tensorEf
libdlib.so.19.24.2:_ZN4dlib3fftIdEEvRKNS_8fft_sizeEPKSt7complexIT_EPS6_b
libdlib.so.19.24.2:_ZN4dlib3fftIfEEvRKNS_8fft_sizeEPKSt7complexIT_EPS6_b
libdlib.so.19.24.2:_ZN4dlib3md5B5cxx11ERSi
libdlib.so.19.24.2:_ZN4dlib3md5EPKhmPh
libdlib.so.19.24.2:_ZN4dlib3md5ERKNSt7__cxx1112basic_stringIcSt11char_traitsIcESaIcEEE
libdlib.so.19.24.2:_ZN4dlib3md5ERSiPh
libdlib.so.19.24.2:_ZN4dlib41get_decoded_string_with_default_font_dataB5cxx11Ev
libdlib.so.19.24.2:_ZN4dlib43auto_train_multiclass_svm_linear_classifierERKSt6vectorINS_6matrixIfLl0ELl1ENS_33memory_manager_stateless_kernel_1IcEENS_16row_major_layoutEEESaIS5_EES0_ImSaImEENSt6chrono8durationIlSt5ratioILl1ELl1000000000EEEEb
libdlib.so.19.24.2:_ZN4dlib43auto_train_multiclass_svm_linear_classifierESt6vectorINS_6matrixIdLl0ELl1ENS_33memory_manager_stateless_kernel_1IcEENS_16row_major_layoutEEESaIS5_EES0_ImSaImEENSt6chrono8durationIlSt5ratioILl1ELl1000000000EEEEb
libdlib.so.19.24.2:_ZN4dlib4fftrIdEEvRKNS_8fft_sizeEPKT_PSt7complexIS4_E
libdlib.so.19.24.2:_ZN4dlib4fftrIfEEvRKNS_8fft_sizeEPKT_PSt7complexIS4_E
libdlib.so.19.24.2:_ZN4dlib4file4initERKNSt7__cxx1112basic_stringIcSt11char_traitsIcESaIcEEE
libdlib.so.19.24.2:_ZN4dlib4impl13impl_save_pngERKNSt7__cxx1112basic_stringIcSt11char_traitsIcESaIcEEERSt6vectorIPhSaISA_EElNS0_8png_typeEi
libdlib.so.19.24.2:_ZN4dlib4impl19default_num_threadsEv
libdlib.so.19.24.2:_ZN4dlib4impl19load_cifar_10_batchERKNSt7__cxx1112basic_stringIcSt11char_traitsIcESaIcEEES8_mmRSt6vectorINS_6matrixINS_9rgb_pixelELl0ELl0ENS_33memory_manager_stateless_kernel_1IcEENS_16row_major_layoutEEESaISF_EERS9_ImSaImEE
libdlib.so.19.24.2:_ZN4dlib5ifftrIdEEvRKNS_8fft_sizeEPKSt7complexIT_EPS5_
libdlib.so.19.24.2:_ZN4dlib5ifftrIfEEvRKNS_8fft_sizeEPKSt7complexIT_EPS5_
libdlib.so.19.24.2:_ZN4dlib5impl111connect_allERNS_12map_kernel_cINS_12map_kernel_1ImSt10unique_ptrINS0_7bsp_conESt14default_deleteIS4_EENS_27binary_search_tree_kernel_1ImS7_NS_33memory_manager_stateless_kernel_1IcEESt4lessImEEESA_EEEERKSt6vectorINS_15network_addressESaISI_EEm
libdlib.so.19.24.2:_ZN4dlib5impl120connect_all_hostinfoERNS_12map_kernel_cINS_12map_kernel_1ImSt10unique_ptrINS0_7bsp_conESt14default_deleteIS4_EENS_27binary_search_tree_kernel_1ImS7_NS_33memory_manager_stateless_kernel_1IcEESt4lessImEEESA_EEEERKSt6vectorINS0_8hostinfoESaISI_EEmRNSt7__cxx1112basic_stringIcSt11char_traitsIcESaIcEEE
libdlib.so.19.24.2:_ZN4dlib5impl126send_out_connection_ordersERNS_12map_kernel_cINS_12map_kernel_1ImSt10unique_ptrINS0_7bsp_conESt14default_deleteIS4_EENS_27binary_search_tree_kernel_1ImS7_NS_33memory_manager_stateless_kernel_1IcEESt4lessImEEESA_EEEERKSt6vectorINS_15network_addressESaISI_EE
libdlib.so.19.24.2:_ZN4dlib5impl211read_threadEPNS_5impl17bsp_conEmmRNS1_25thread_safe_message_queueE
libdlib.so.19.24.2:_ZN4dlib5label13set_main_fontERKSt10shared_ptrINS_4fontEE
libdlib.so.19.24.2:_ZN4dlib5label14set_text_colorENS_9rgb_pixelE
libdlib.so.19.24.2:_ZN4dlib5label8set_textERKNSt7__cxx1112basic_stringIcSt11char_traitsIcESaIcEEE
libdlib.so.19.24.2:_ZN4dlib5label8set_textERKNSt7__cxx1112basic_stringIjSt11char_traitsIjESaIjEEE
libdlib.so.19.24.2:_ZN4dlib5label8set_textERKNSt7__cxx1112basic_stringIwSt11char_traitsIwESaIwEEE
libdlib.so.19.24.2:_ZN4dlib5sleepEm
libdlib.so.19.24.2:_ZN4dlib6base6415set_line_endingENS0_16line_ending_typeE
libdlib.so.19.24.2:_ZN4dlib6base64C1Ev
libdlib.so.19.24.2:_ZN4dlib6base64C2Ev
libdlib.so.19.24.2:_ZN4dlib6base64D0Ev
libdlib.so.19.24.2:_ZN4dlib6base64D1Ev
libdlib.so.19.24.2:_ZN4dlib6base64D2Ev
libdlib.so.19.24.2:_ZN4dlib6button12on_button_upEb
libdlib.so.19.24.2:_ZN4dlib6button13set_main_fontERKSt10shared_ptrINS_4fontEE
libdlib.so.19.24.2:_ZN4dlib6button14on_button_downEv
libdlib.so.19.24.2:_ZN4dlib6button16set_tooltip_textERKNSt7__cxx1112basic_stringIcSt11char_traitsIcESaIcEEE
libdlib.so.19.24.2:_ZN4dlib6button16set_tooltip_textERKNSt7__cxx1112basic_stringIjSt11char_traitsIjESaIjEEE
libdlib.so.19.24.2:_ZN4dlib6button16set_tooltip_textERKNSt7__cxx1112basic_stringIwSt11char_traitsIwESaIwEEE
libdlib.so.19.24.2:_ZN4dlib6button4hideEv
libdlib.so.19.24.2:_ZN4dlib6button4showEv
libdlib.so.19.24.2:_ZN4dlib6button6enableEv
libdlib.so.19.24.2:_ZN4dlib6button7disableEv
libdlib.so.19.24.2:_ZN4dlib6button7set_posEll
libdlib.so.19.24.2:_ZN4dlib6button8set_nameERKNSt7__cxx1112basic_stringIcSt11char_traitsIcESaIcEEE
libdlib.so.19.24.2:_ZN4dlib6button8set_nameERKNSt7__cxx1112basic_stringIjSt11char_traitsIjESaIjEEE
libdlib.so.19.24.2:_ZN4dlib6button8set_nameERKNSt7__cxx1112basic_stringIwSt11char_traitsIwESaIwEEE
libdlib.so.19.24.2:_ZN4dlib6button8set_sizeEmm
libdlib.so.19.24.2:_ZN4dlib6linker18service_connectionEPv
libdlib.so.19.24.2:_ZN4dlib6linker4linkERNS_10connectionES2_
libdlib.so.19.24.2:_ZN4dlib6linker5clearEv
libdlib.so.19.24.2:_ZN4dlib6linkerC1ERNS_10connectionES2_
libdlib.so.19.24.2:_ZN4dlib6linkerC1Ev
libdlib.so.19.24.2:_ZN4dlib6linkerC2ERNS_10connectionES2_
libdlib.so.19.24.2:_ZN4dlib6linkerC2Ev
libdlib.so.19.24.2:_ZN4dlib6linkerD0Ev
libdlib.so.19.24.2:_ZN4dlib6linkerD1Ev
libdlib.so.19.24.2:_ZN4dlib6linkerD2Ev
libdlib.so.19.24.2:_ZN4dlib6logger11global_data11output_hookERKNSt7__cxx1112basic_stringIcSt11char_traitsIcESaIcEEE
libdlib.so.19.24.2:_ZN4dlib6logger11global_data13logger_headerERKNSt7__cxx1112basic_stringIcSt11char_traitsIcESaIcEEE
libdlib.so.19.24.2:_ZN4dlib6logger11global_data14set_auto_flushERKNSt7__cxx1112basic_stringIcSt11char_traitsIcESaIcEEEb
libdlib.so.19.24.2:_ZN4dlib6logger11global_data15get_thread_nameEv
libdlib.so.19.24.2:_ZN4dlib6logger11global_data15level_containerC1Ev
libdlib.so.19.24.2:_ZN4dlib6logger11global_data15level_containerC2Ev
libdlib.so.19.24.2:_ZN4dlib6logger11global_data15set_output_hookERKNSt7__cxx1112basic_stringIcSt11char_traitsIcESaIcEEERKNS_23member_function_pointerIS9_RKNS_9log_levelEKyPKcEE
libdlib.so.19.24.2:_ZN4dlib6logger11global_data16output_streambufERKNSt7__cxx1112basic_stringIcSt11char_traitsIcESaIcEEE
libdlib.so.19.24.2:_ZN4dlib6logger11global_data17set_logger_headerERKNSt7__cxx1112basic_stringIcSt11char_traitsIcESaIcEEEPFvRSoS9_RKNS_9log_levelEyE
libdlib.so.19.24.2:_ZN4dlib6logger11global_data17set_output_streamERKNSt7__cxx1112basic_stringIcSt11char_traitsIcESaIcEEERSo
libdlib.so.19.24.2:_ZN4dlib6logger11global_data17set_output_streamERKNSt7__cxx1112basic_stringIcSt11char_traitsIcESaIcEEERSt15basic_streambufIcS5_E
libdlib.so.19.24.2:_ZN4dlib6logger11global_data18thread_end_handlerEv
libdlib.so.19.24.2:_ZN4dlib6logger11global_data9set_levelERKNSt7__cxx1112basic_stringIcSt11char_traitsIcESaIcEEERKNS_9log_levelE
libdlib.so.19.24.2:_ZN4dlib6logger11global_dataC1Ev
libdlib.so.19.24.2:_ZN4dlib6logger11global_dataC2Ev
libdlib.so.19.24.2:_ZN4dlib6logger11global_dataD1Ev
libdlib.so.19.24.2:_ZN4dlib6logger11global_dataD2Ev
libdlib.so.19.24.2:_ZN4dlib6logger13logger_stream17print_end_of_lineEv
libdlib.so.19.24.2:_ZN4dlib6logger13logger_stream22print_header_and_stuffEv
libdlib.so.19.24.2:_ZN4dlib6logger15get_global_dataEv
libdlib.so.19.24.2:_ZN4dlib6loggerC1ERKNSt7__cxx1112basic_stringIcSt11char_traitsIcESaIcEEE
libdlib.so.19.24.2:_ZN4dlib6loggerC2ERKNSt7__cxx1112basic_stringIcSt11char_traitsIcESaIcEEE
libdlib.so.19.24.2:_ZN4dlib6loggerD0Ev
libdlib.so.19.24.2:_ZN4dlib6loggerD1Ev
libdlib.so.19.24.2:_ZN4dlib6loggerD2Ev
libdlib.so.19.24.2:_ZN4dlib6server11start_asyncEv
libdlib.so.19.24.2:_ZN4dlib6server16set_listening_ipERKNSt7__cxx1112basic_stringIcSt11char_traitsIcESaIcEEE
libdlib.so.19.24.2:_ZN4dlib6server18service_connectionEPv
libdlib.so.19.24.2:_ZN4dlib6server18set_listening_portEi
libdlib.so.19.24.2:_ZN4dlib6server18start_async_helperEv
libdlib.so.19.24.2:_ZN4dlib6server19set_max_connectionsEi
libdlib.so.19.24.2:_ZN4dlib6server21open_listening_socketEv
libdlib.so.19.24.2:_ZN4dlib6server26set_graceful_close_timeoutEm
libdlib.so.19.24.2:_ZN4dlib6server27start_accepting_connectionsEv
libdlib.so.19.24.2:_ZN4dlib6server5clearEv
libdlib.so.19.24.2:_ZN4dlib6server5startEv
libdlib.so.19.24.2:_ZN4dlib6serverC1Ev
libdlib.so.19.24.2:_ZN4dlib6serverC2Ev
libdlib.so.19.24.2:_ZN4dlib6serverD0Ev
libdlib.so.19.24.2:_ZN4dlib6serverD1Ev
libdlib.so.19.24.2:_ZN4dlib6serverD2Ev
libdlib.so.19.24.2:_ZN4dlib7connectERKNS_15network_addressE
libdlib.so.19.24.2:_ZN4dlib7connectERKNSt7__cxx1112basic_stringIcSt11char_traitsIcESaIcEEEt
libdlib.so.19.24.2:_ZN4dlib7connectERKNSt7__cxx1112basic_stringIcSt11char_traitsIcESaIcEEEtm
libdlib.so.19.24.2:_ZN4dlib7timeout15trigger_timeoutEv
libdlib.so.19.24.2:_ZN4dlib7tooltip12show_tooltipEv
libdlib.so.19.24.2:_ZN4dlib8bdf_font13read_bdf_fileERSijj
libdlib.so.19.24.2:_ZN4dlib8bdf_font14adjust_metricsEv
libdlib.so.19.24.2:_ZN4dlib8bdf_font16bitmap_to_letterERNS_7array2dIcNS_33memory_manager_stateless_kernel_1IcEEEEjmii
libdlib.so.19.24.2:_ZN4dlib8bdf_fontC1El
libdlib.so.19.24.2:_ZN4dlib8bdf_fontC2El
libdlib.so.19.24.2:_ZN4dlib8drawable11set_z_orderEl
libdlib.so.19.24.2:_ZN4dlib8drawable13enable_eventsEv
libdlib.so.19.24.2:_ZN4dlib8drawable14disable_eventsEv
libdlib.so.19.24.2:_ZN4dlib8drawableD0Ev
libdlib.so.19.24.2:_ZN4dlib8drawableD1Ev
libdlib.so.19.24.2:_ZN4dlib8drawableD2Ev
libdlib.so.19.24.2:_ZN4dlib8listener6acceptERPNS_10connectionEm
libdlib.so.19.24.2:_ZN4dlib8listener6acceptERSt10unique_ptrINS_10connectionESt14default_deleteIS2_EEm
libdlib.so.19.24.2:_ZN4dlib8listenerC1EiiRKNSt7__cxx1112basic_stringIcSt11char_traitsIcESaIcEEE
libdlib.so.19.24.2:_ZN4dlib8listenerC2EiiRKNSt7__cxx1112basic_stringIcSt11char_traitsIcESaIcEEE
libdlib.so.19.24.2:_ZN4dlib8listenerD1Ev
libdlib.so.19.24.2:_ZN4dlib8listenerD2Ev
libdlib.so.19.24.2:_ZN4dlib8menu_bar10on_keydownEmbm
libdlib.so.19.24.2:_ZN4dlib8menu_bar13on_focus_lostEv
libdlib.so.19.24.2:_ZN4dlib8menu_bar13on_mouse_downEmmllb
libdlib.so.19.24.2:_ZN4dlib8menu_bar13on_mouse_moveEmll
libdlib.so.19.24.2:_ZN4dlib8menu_bar13on_popup_hideEv
libdlib.so.19.24.2:_ZN4dlib8menu_bar13set_main_fontERKSt10shared_ptrINS_4fontEE
libdlib.so.19.24.2:_ZN4dlib8menu_bar13set_menu_nameEmNSt7__cxx1112basic_stringIcSt11char_traitsIcESaIcEEEc
libdlib.so.19.24.2:_ZN4dlib8menu_bar13set_menu_nameEmNSt7__cxx1112basic_stringIjSt11char_traitsIjESaIjEEEc
libdlib.so.19.24.2:_ZN4dlib8menu_bar13set_menu_nameEmNSt7__cxx1112basic_stringIwSt11char_traitsIwESaIwEEEc
libdlib.so.19.24.2:_ZN4dlib8menu_bar15adjust_positionEv
libdlib.so.19.24.2:_ZN4dlib8menu_bar15on_window_movedEv
libdlib.so.19.24.2:_ZN4dlib8menu_bar17on_window_resizedEv
libdlib.so.19.24.2:_ZN4dlib8menu_bar19set_number_of_menusEm
libdlib.so.19.24.2:_ZN4dlib8menu_bar21compute_menu_geometryEv
libdlib.so.19.24.2:_ZN4dlib8menu_bar4menuEm
libdlib.so.19.24.2:_ZN4dlib8menu_bar9hide_menuEv
libdlib.so.19.24.2:_ZN4dlib8menu_bar9show_menuEm
libdlib.so.19.24.2:_ZN4dlib8menu_barC1ERNS_15drawable_windowE
libdlib.so.19.24.2:_ZN4dlib8menu_barC2ERNS_15drawable_windowE
libdlib.so.19.24.2:_ZN4dlib8menu_barD0Ev
libdlib.so.19.24.2:_ZN4dlib8menu_barD1Ev
libdlib.so.19.24.2:_ZN4dlib8menu_barD2Ev
libdlib.so.19.24.2:_ZN4dlib8text_box10on_keydownEmbm
libdlib.so.19.24.2:_ZN4dlib8text_box11move_cursorEm
libdlib.so.19.24.2:_ZN4dlib8text_box11on_mouse_upEmmll
libdlib.so.19.24.2:_ZN4dlib8text_box13on_mouse_downEmmllb
libdlib.so.19.24.2:_ZN4dlib8text_box13on_mouse_moveEmll
libdlib.so.19.24.2:_ZN4dlib8text_box13on_select_allEv
libdlib.so.19.24.2:_ZN4dlib8text_box13on_string_putERKNSt7__cxx1112basic_stringIwSt11char_traitsIwESaIwEEE
libdlib.so.19.24.2:_ZN4dlib8text_box13set_main_fontERKSt10shared_ptrINS_4fontEE
libdlib.so.19.24.2:_ZN4dlib8text_box14set_text_colorENS_9rgb_pixelE
libdlib.so.19.24.2:_ZN4dlib8text_box17adjust_total_rectEv
libdlib.so.19.24.2:_ZN4dlib8text_box18on_delete_selectedEv
libdlib.so.19.24.2:_ZN4dlib8text_box19on_no_text_selectedEv
libdlib.so.19.24.2:_ZN4dlib8text_box19on_text_is_selectedEv
libdlib.so.19.24.2:_ZN4dlib8text_box20set_background_colorENS_9rgb_pixelE
libdlib.so.19.24.2:_ZN4dlib8text_box4hideEv
libdlib.so.19.24.2:_ZN4dlib8text_box4showEv
libdlib.so.19.24.2:_ZN4dlib8text_box6enableEv
libdlib.so.19.24.2:_ZN4dlib8text_box6on_cutEv
libdlib.so.19.24.2:_ZN4dlib8text_box7disableEv
libdlib.so.19.24.2:_ZN4dlib8text_box7on_copyEv
libdlib.so.19.24.2:_ZN4dlib8text_box7set_posEll
libdlib.so.19.24.2:_ZN4dlib8text_box8on_pasteEv
libdlib.so.19.24.2:_ZN4dlib8text_box8set_sizeEmm
libdlib.so.19.24.2:_ZN4dlib8text_box8set_textERKNSt7__cxx1112basic_stringIcSt11char_traitsIcESaIcEEE
libdlib.so.19.24.2:_ZN4dlib8text_box8set_textERKNSt7__cxx1112basic_stringIjSt11char_traitsIjESaIjEEE
libdlib.so.19.24.2:_ZN4dlib8text_box8set_textERKNSt7__cxx1112basic_stringIwSt11char_traitsIwESaIwEEE
libdlib.so.19.24.2:_ZN4dlib9directory13get_separatorEv
libdlib.so.19.24.2:_ZN4dlib9directory4initERKNSt7__cxx1112basic_stringIcSt11char_traitsIcESaIcEEE
libdlib.so.19.24.2:_ZN4dlib9draggable11on_mouse_upEmmll
libdlib.so.19.24.2:_ZN4dlib9draggable13on_mouse_downEmmllb
libdlib.so.19.24.2:_ZN4dlib9draggable13on_mouse_moveEmll
libdlib.so.19.24.2:_ZN4dlib9draggableD0Ev
libdlib.so.19.24.2:_ZN4dlib9draggableD1Ev
libdlib.so.19.24.2:_ZN4dlib9draggableD2Ev
libdlib.so.19.24.2:_ZN4dlib9gopt_impl10funct_info7find_nnERKSt6vectorINS_19function_evaluationESaIS3_EERKNS_6matrixIdLl0ELl1ENS_33memory_manager_stateless_kernel_1IcEENS_16row_major_layoutEEE
libdlib.so.19.24.2:_ZN4dlib9http_impl15read_with_limitERSiRNSt7__cxx1112basic_stringIcSt11char_traitsIcESaIcEEEi
libdlib.so.19.24.2:_ZN4dlib9http_impl9parse_urlENSt7__cxx1112basic_stringIcSt11char_traitsIcESaIcEEERNS_8constmapIS6_S6_St4lessIS6_EEE
libdlib.so.19.24.2:_ZN4dlib9http_impl9urldecodeERKNSt7__cxx1112basic_stringIcSt11char_traitsIcESaIcEEE
libdlib.so.19.24.2:_ZN4dlib9http_impl9urlencodeERKNSt7__cxx1112basic_stringIcSt11char_traitsIcESaIcEEE
libdlib.so.19.24.2:_ZN4dlib9md5_stuff14scramble_blockERjS1_S1_S1_Pj
libdlib.so.19.24.2:_ZN4dlib9qopt_impl18make_random_vectorERNS_4randERKNS_6matrixIdLl0ELl1ENS_33memory_manager_stateless_kernel_1IcEENS_16row_major_layoutEEES9_RKSt6vectorIbSaIbEE
libdlib.so.19.24.2:_ZN4dlib9qopt_impl23fit_quadratic_to_pointsERKNS_6matrixIdLl0ELl0ENS_33memory_manager_stateless_kernel_1IcEENS_16row_major_layoutEEERKNS1_IdLl0ELl1ES3_S4_EERS5_RS8_Rd
libdlib.so.19.24.2:_ZN4dlib9qopt_impl27fit_quadratic_to_points_mseERKNS_6matrixIdLl0ELl0ENS_33memory_manager_stateless_kernel_1IcEENS_16row_major_layoutEEERKNS1_IdLl0ELl1ES3_S4_EERS5_RS8_Rd
libdlib.so.19.24.2:_ZN4dlib9qopt_impl35pick_next_sample_as_max_upper_boundERNS_4randERKNS_20upper_bound_functionERKNS_6matrixIdLl0ELl1ENS_33memory_manager_stateless_kernel_1IcEENS_16row_major_layoutEEESC_RKSt6vectorIbSaIbEEm
libdlib.so.19.24.2:_ZN4dlib9qopt_impl35pick_next_sample_using_trust_regionERKSt6vectorINS_19function_evaluationESaIS2_EERdRKNS_6matrixIdLl0ELl1ENS_33memory_manager_stateless_kernel_1IcEENS_16row_major_layoutEEESE_RKS1_IbSaIbEE
libdlib.so.19.24.2:_ZN4dlib9qopt_impl40find_max_quadraticly_interpolated_vectorERKNS_6matrixIdLl0ELl1ENS_33memory_manager_stateless_kernel_1IcEENS_16row_major_layoutEEEdRKSt6vectorIS5_SaIS5_EERKS8_IdSaIdEES7_S7_
libdlib.so.19.24.2:_ZN4dlib9read_bodyERSiRNS_15incoming_thingsE
libdlib.so.19.24.2:_ZN4dlib9save_jpegERKNS_7array2dINS_9rgb_pixelENS_33memory_manager_stateless_kernel_1IcEEEERKNSt7__cxx1112basic_stringIcSt11char_traitsIcESaIcEEEi
libdlib.so.19.24.2:_ZN4dlib9save_jpegERKNS_7array2dIhNS_33memory_manager_stateless_kernel_1IcEEEERKNSt7__cxx1112basic_stringIcSt11char_traitsIcESaIcEEEi
libdlib.so.19.24.2:_ZN4dlib9serializeERKNS_15network_addressERSo
libdlib.so.19.24.2:_ZN4dlib9serializeERKNS_6letterERSo
libdlib.so.19.24.2:_ZN4dlib9text_grid10on_keydownEmbm
libdlib.so.19.24.2:_ZN4dlib9text_grid11move_cursorElll
libdlib.so.19.24.2:_ZN4dlib9text_grid11on_mouse_upEmmll
libdlib.so.19.24.2:_ZN4dlib9text_grid12set_editableEmmb
libdlib.so.19.24.2:_ZN4dlib9text_grid12timer_actionEv
libdlib.so.19.24.2:_ZN4dlib9text_grid13on_focus_lostEv
libdlib.so.19.24.2:_ZN4dlib9text_grid13on_mouse_downEmmllb
libdlib.so.19.24.2:_ZN4dlib9text_grid13on_user_eventEi
libdlib.so.19.24.2:_ZN4dlib9text_grid13set_grid_sizeEmm
libdlib.so.19.24.2:_ZN4dlib9text_grid14set_row_heightEmm
libdlib.so.19.24.2:_ZN4dlib9text_grid14set_text_colorEmmNS_9rgb_pixelE
libdlib.so.19.24.2:_ZN4dlib9text_grid16compute_bg_rectsEv
libdlib.so.19.24.2:_ZN4dlib9text_grid16drop_input_focusEv
libdlib.so.19.24.2:_ZN4dlib9text_grid16set_border_colorENS_9rgb_pixelE
libdlib.so.19.24.2:_ZN4dlib9text_grid16set_column_widthEmm
libdlib.so.19.24.2:_ZN4dlib9text_grid18compute_total_rectEv
libdlib.so.19.24.2:_ZN4dlib9text_grid20set_background_colorEmmNS_9rgb_pixelE
libdlib.so.19.24.2:_ZN4dlib9text_grid4hideEv
libdlib.so.19.24.2:_ZN4dlib9text_grid7disableEv
libdlib.so.19.24.2:_ZN4dlib9text_grid8set_textEmmRKNSt7__cxx1112basic_stringIcSt11char_traitsIcESaIcEEE
libdlib.so.19.24.2:_ZN4dlib9text_grid8set_textEmmRKNSt7__cxx1112basic_stringIjSt11char_traitsIjESaIjEEE
libdlib.so.19.24.2:_ZN4dlib9text_grid8set_textEmmRKNSt7__cxx1112basic_stringIwSt11char_traitsIwESaIwEEE
libdlib.so.19.24.2:_ZN4dlib9text_gridC1ERNS_15drawable_windowE
libdlib.so.19.24.2:_ZN4dlib9text_gridC2ERNS_15drawable_windowE
libdlib.so.19.24.2:_ZN4dlib9text_gridD0Ev
libdlib.so.19.24.2:_ZN4dlib9text_gridD1Ev
libdlib.so.19.24.2:_ZN4dlib9text_gridD2Ev
libdlib.so.19.24.2:_ZN4dlibdvERKNS_15bigint_kernel_1Et
libdlib.so.19.24.2:_ZN4dlibdvERKNS_15bigint_kernel_2Et
libdlib.so.19.24.2:_ZN4dlibdvEtRKNS_15bigint_kernel_1E
libdlib.so.19.24.2:_ZN4dlibdvEtRKNS_15bigint_kernel_2E
libdlib.so.19.24.2:_ZN4dlibeqERKNS_15bigint_kernel_1Et
libdlib.so.19.24.2:_ZN4dlibeqERKNS_15bigint_kernel_2Et
libdlib.so.19.24.2:_ZN4dlibeqEtRKNS_15bigint_kernel_1E
libdlib.so.19.24.2:_ZN4dlibeqEtRKNS_15bigint_kernel_2E
libdlib.so.19.24.2:_ZN4dliblsERSoRKNS_15bigint_kernel_1E
libdlib.so.19.24.2:_ZN4dliblsERSoRKNS_15bigint_kernel_2E
libdlib.so.19.24.2:_ZN4dliblsERSoRKNS_15network_addressE
libdlib.so.19.24.2:_ZN4dlibltERKNS_15bigint_kernel_1Et
libdlib.so.19.24.2:_ZN4dlibltERKNS_15bigint_kernel_2Et
libdlib.so.19.24.2:_ZN4dlibltEtRKNS_15bigint_kernel_1E
libdlib.so.19.24.2:_ZN4dlibltEtRKNS_15bigint_kernel_2E
libdlib.so.19.24.2:_ZN4dlibmiERKNS_15bigint_kernel_1Et
libdlib.so.19.24.2:_ZN4dlibmiERKNS_15bigint_kernel_2Et
libdlib.so.19.24.2:_ZN4dlibmiEtRKNS_15bigint_kernel_1E
libdlib.so.19.24.2:_ZN4dlibmiEtRKNS_15bigint_kernel_2E
libdlib.so.19.24.2:_ZN4dlibmlERKNS_15bigint_kernel_1Et
libdlib.so.19.24.2:_ZN4dlibmlERKNS_15bigint_kernel_2Et
libdlib.so.19.24.2:_ZN4dlibmlEtRKNS_15bigint_kernel_1E
libdlib.so.19.24.2:_ZN4dlibmlEtRKNS_15bigint_kernel_2E
libdlib.so.19.24.2:_ZN4dlibplERKNS_15bigint_kernel_1Et
libdlib.so.19.24.2:_ZN4dlibplERKNS_15bigint_kernel_2Et
libdlib.so.19.24.2:_ZN4dlibplEtRKNS_15bigint_kernel_1E
libdlib.so.19.24.2:_ZN4dlibplEtRKNS_15bigint_kernel_2E
libdlib.so.19.24.2:_ZN4dlibrmERKNS_15bigint_kernel_1Et
libdlib.so.19.24.2:_ZN4dlibrmERKNS_15bigint_kernel_2Et
libdlib.so.19.24.2:_ZN4dlibrmEtRKNS_15bigint_kernel_1E
libdlib.so.19.24.2:_ZN4dlibrmEtRKNS_15bigint_kernel_2E
libdlib.so.19.24.2:_ZN4dlibrsERSiRNS_15bigint_kernel_1E
libdlib.so.19.24.2:_ZN4dlibrsERSiRNS_15bigint_kernel_2E
libdlib.so.19.24.2:_ZN4dlibrsERSiRNS_15network_addressE
libdlib.so.19.24.2:_ZNK4dlib10connection8readableEm
libdlib.so.19.24.2:_ZNK4dlib10png_loader6is_rgbEv
libdlib.so.19.24.2:_ZNK4dlib10png_loader7get_rowEj
libdlib.so.19.24.2:_ZNK4dlib10png_loader7is_grayEv
libdlib.so.19.24.2:_ZNK4dlib10png_loader7is_rgbaEv
libdlib.so.19.24.2:_ZNK4dlib10png_loader8is_grayaEv
libdlib.so.19.24.2:_ZNK4dlib10popup_menu4sizeEv
libdlib.so.19.24.2:_ZNK4dlib10scroll_bar10slider_posEv
libdlib.so.19.24.2:_ZNK4dlib10scroll_bar11orientationEv
libdlib.so.19.24.2:_ZNK4dlib10scroll_bar14max_slider_posEv
libdlib.so.19.24.2:_ZNK4dlib10scroll_bar15get_slider_sizeEv
libdlib.so.19.24.2:_ZNK4dlib10scroll_bar4drawERKNS_6canvasE
libdlib.so.19.24.2:_ZNK4dlib10scroll_bar9jump_sizeEv
libdlib.so.19.24.2:_ZNK4dlib10text_field10text_colorEv
libdlib.so.19.24.2:_ZNK4dlib10text_field13get_text_rectEv
libdlib.so.19.24.2:_ZNK4dlib10text_field15has_input_focusEv
libdlib.so.19.24.2:_ZNK4dlib10text_field16background_colorEv
libdlib.so.19.24.2:_ZNK4dlib10text_field4drawERKNS_6canvasE
libdlib.so.19.24.2:_ZNK4dlib10text_field4textB5cxx11Ev
libdlib.so.19.24.2:_ZNK4dlib10text_field5utextB5cxx11Ev
libdlib.so.19.24.2:_ZNK4dlib10text_field5wtextB5cxx11Ev
libdlib.so.19.24.2:_ZNK4dlib11base_window16get_display_sizeERmS1_
libdlib.so.19.24.2:_ZNK4dlib11base_window17wait_until_closedEv
libdlib.so.19.24.2:_ZNK4dlib11base_window8get_sizeERmS1_
libdlib.so.19.24.2:_ZNK4dlib11base_window9is_closedEv
libdlib.so.19.24.2:_ZNK4dlib11jpeg_loader6is_rgbEv
libdlib.so.19.24.2:_ZNK4dlib11jpeg_loader7is_grayEv
libdlib.so.19.24.2:_ZNK4dlib11jpeg_loader7is_rgbaEv
libdlib.so.19.24.2:_ZNK4dlib11timestamper13get_timestampEv
libdlib.so.19.24.2:_ZNK4dlib12image_window11events_tiedEv
libdlib.so.19.24.2:_ZNK4dlib12widget_group4sizeEv
libdlib.so.19.24.2:_ZNK4dlib12widget_group9is_memberERKNS_8drawableE
libdlib.so.19.24.2:_ZNK4dlib13button_action12is_depressedEv
libdlib.so.19.24.2:_ZNK4dlib13image_display17get_overlay_rectsEv
libdlib.so.19.24.2:_ZNK4dlib13image_display18get_rect_on_screenENS_9rectangleE
libdlib.so.19.24.2:_ZNK4dlib13image_display18get_rect_on_screenEm
libdlib.so.19.24.2:_ZNK4dlib13image_display22get_image_display_rectEv
libdlib.so.19.24.2:_ZNK4dlib13image_display30get_default_overlay_rect_colorEv
libdlib.so.19.24.2:_ZNK4dlib13image_display30get_default_overlay_rect_labelB5cxx11Ev
libdlib.so.19.24.2:_ZNK4dlib13image_display4drawERKNS_6canvasE
libdlib.so.19.24.2:_ZNK4dlib13mouse_tracker4drawERKNS_6canvasE
libdlib.so.19.24.2:_ZNK4dlib13toggle_button10is_checkedEv
libdlib.so.19.24.2:_ZNK4dlib13toggle_button12tooltip_textB5cxx11Ev
libdlib.so.19.24.2:_ZNK4dlib13toggle_button13tooltip_utextB5cxx11Ev
libdlib.so.19.24.2:_ZNK4dlib13toggle_button13tooltip_wtextB5cxx11Ev
libdlib.so.19.24.2:_ZNK4dlib13toggle_button4nameB5cxx11Ev
libdlib.so.19.24.2:_ZNK4dlib13toggle_button5unameB5cxx11Ev
libdlib.so.19.24.2:_ZNK4dlib13toggle_button5wnameB5cxx11Ev
libdlib.so.19.24.2:_ZNK4dlib14tabbed_display12selected_tabEv
libdlib.so.19.24.2:_ZNK4dlib14tabbed_display14number_of_tabsEv
libdlib.so.19.24.2:_ZNK4dlib14tabbed_display4drawERKNS_6canvasE
libdlib.so.19.24.2:_ZNK4dlib14tabbed_display8draw_tabERKNS_9rectangleERKNS_6canvasE
libdlib.so.19.24.2:_ZNK4dlib14tabbed_display8tab_nameB5cxx11Em
libdlib.so.19.24.2:_ZNK4dlib14tabbed_display9tab_unameB5cxx11Em
libdlib.so.19.24.2:_ZNK4dlib14tabbed_display9tab_wnameB5cxx11Em
libdlib.so.19.24.2:_ZNK4dlib15bigint_kernel_110shift_leftEPKNS0_11data_recordEPS1_j
libdlib.so.19.24.2:_ZNK4dlib15bigint_kernel_111is_equal_toEPKNS0_11data_recordES3_
libdlib.so.19.24.2:_ZNK4dlib15bigint_kernel_111shift_rightEPKNS0_11data_recordEPS1_
libdlib.so.19.24.2:_ZNK4dlib15bigint_kernel_112is_less_thanEPKNS0_11data_recordES3_
libdlib.so.19.24.2:_ZNK4dlib15bigint_kernel_18long_addEPKNS0_11data_recordES3_PS1_
libdlib.so.19.24.2:_ZNK4dlib15bigint_kernel_18long_divEPKNS0_11data_recordES3_PS1_S4_
libdlib.so.19.24.2:_ZNK4dlib15bigint_kernel_18long_mulEPKNS0_11data_recordES3_PS1_
libdlib.so.19.24.2:_ZNK4dlib15bigint_kernel_18long_subEPKNS0_11data_recordES3_PS1_
libdlib.so.19.24.2:_ZNK4dlib15bigint_kernel_19decrementEPKNS0_11data_recordEPS1_
libdlib.so.19.24.2:_ZNK4dlib15bigint_kernel_19incrementEPKNS0_11data_recordEPS1_
libdlib.so.19.24.2:_ZNK4dlib15bigint_kernel_19short_addEPKNS0_11data_recordEtPS1_
libdlib.so.19.24.2:_ZNK4dlib15bigint_kernel_19short_divEPKNS0_11data_recordEtPS1_Rt
libdlib.so.19.24.2:_ZNK4dlib15bigint_kernel_19short_mulEPKNS0_11data_recordEtPS1_
libdlib.so.19.24.2:_ZNK4dlib15bigint_kernel_19short_subEPKNS0_11data_recordEtPS1_
libdlib.so.19.24.2:_ZNK4dlib15bigint_kernel_1dvERKS0_
libdlib.so.19.24.2:_ZNK4dlib15bigint_kernel_1eqERKS0_
libdlib.so.19.24.2:_ZNK4dlib15bigint_kernel_1ltERKS0_
libdlib.so.19.24.2:_ZNK4dlib15bigint_kernel_1miERKS0_
libdlib.so.19.24.2:_ZNK4dlib15bigint_kernel_1mlERKS0_
libdlib.so.19.24.2:_ZNK4dlib15bigint_kernel_1plERKS0_
libdlib.so.19.24.2:_ZNK4dlib15bigint_kernel_1rmERKS0_
libdlib.so.19.24.2:_ZNK4dlib15bigint_kernel_210shift_leftEPKNS0_11data_recordEPS1_j
libdlib.so.19.24.2:_ZNK4dlib15bigint_kernel_211is_equal_toEPKNS0_11data_recordES3_
libdlib.so.19.24.2:_ZNK4dlib15bigint_kernel_211shift_rightEPKNS0_11data_recordEPS1_
libdlib.so.19.24.2:_ZNK4dlib15bigint_kernel_212is_less_thanEPKNS0_11data_recordES3_
libdlib.so.19.24.2:_ZNK4dlib15bigint_kernel_23fftEPSt7complexIdEm
libdlib.so.19.24.2:_ZNK4dlib15bigint_kernel_24ifftEPSt7complexIdEm
libdlib.so.19.24.2:_ZNK4dlib15bigint_kernel_28long_addEPKNS0_11data_recordES3_PS1_
libdlib.so.19.24.2:_ZNK4dlib15bigint_kernel_28long_divEPKNS0_11data_recordES3_PS1_S4_
libdlib.so.19.24.2:_ZNK4dlib15bigint_kernel_28long_mulEPKNS0_11data_recordES3_PS1_
libdlib.so.19.24.2:_ZNK4dlib15bigint_kernel_28long_subEPKNS0_11data_recordES3_PS1_
libdlib.so.19.24.2:_ZNK4dlib15bigint_kernel_29decrementEPKNS0_11data_recordEPS1_
libdlib.so.19.24.2:_ZNK4dlib15bigint_kernel_29incrementEPKNS0_11data_recordEPS1_
libdlib.so.19.24.2:_ZNK4dlib15bigint_kernel_29short_addEPKNS0_11data_recordEtPS1_
libdlib.so.19.24.2:_ZNK4dlib15bigint_kernel_29short_divEPKNS0_11data_recordEtPS1_Rt
libdlib.so.19.24.2:_ZNK4dlib15bigint_kernel_29short_mulEPKNS0_11data_recordEtPS1_
libdlib.so.19.24.2:_ZNK4dlib15bigint_kernel_29short_subEPKNS0_11data_recordEtPS1_
libdlib.so.19.24.2:_ZNK4dlib15bigint_kernel_2dvERKS0_
libdlib.so.19.24.2:_ZNK4dlib15bigint_kernel_2eqERKS0_
libdlib.so.19.24.2:_ZNK4dlib15bigint_kernel_2ltERKS0_
libdlib.so.19.24.2:_ZNK4dlib15bigint_kernel_2miERKS0_
libdlib.so.19.24.2:_ZNK4dlib15bigint_kernel_2mlERKS0_
libdlib.so.19.24.2:_ZNK4dlib15bigint_kernel_2plERKS0_
libdlib.so.19.24.2:_ZNK4dlib15bigint_kernel_2rmERKS0_
libdlib.so.19.24.2:_ZNK4dlib15drawable_window16background_colorEv
libdlib.so.19.24.2:_ZNK4dlib15list_box_helper8list_boxINSt7__cxx1112basic_stringIcSt11char_traitsIcESaIcEEEE11is_selectedEm
libdlib.so.19.24.2:_ZNK4dlib15list_box_helper8list_boxINSt7__cxx1112basic_stringIcSt11char_traitsIcESaIcEEEE12get_selectedEv
libdlib.so.19.24.2:_ZNK4dlib15list_box_helper8list_boxINSt7__cxx1112basic_stringIcSt11char_traitsIcESaIcEEEE21current_element_validEv
libdlib.so.19.24.2:_ZNK4dlib15list_box_helper8list_boxINSt7__cxx1112basic_stringIcSt11char_traitsIcESaIcEEEE23multiple_select_enabledEv
libdlib.so.19.24.2:_ZNK4dlib15list_box_helper8list_boxINSt7__cxx1112basic_stringIcSt11char_traitsIcESaIcEEEE4drawERKNS_6canvasE
libdlib.so.19.24.2:_ZNK4dlib15list_box_helper8list_boxINSt7__cxx1112basic_stringIcSt11char_traitsIcESaIcEEEE4sizeEv
libdlib.so.19.24.2:_ZNK4dlib15list_box_helper8list_boxINSt7__cxx1112basic_stringIcSt11char_traitsIcESaIcEEEE5resetEv
libdlib.so.19.24.2:_ZNK4dlib15list_box_helper8list_boxINSt7__cxx1112basic_stringIcSt11char_traitsIcESaIcEEEE7elementEv
libdlib.so.19.24.2:_ZNK4dlib15list_box_helper8list_boxINSt7__cxx1112basic_stringIcSt11char_traitsIcESaIcEEEE8at_startEv
libdlib.so.19.24.2:_ZNK4dlib15list_box_helper8list_boxINSt7__cxx1112basic_stringIcSt11char_traitsIcESaIcEEEE9move_nextEv
libdlib.so.19.24.2:_ZNK4dlib15list_box_helper8list_boxINSt7__cxx1112basic_stringIcSt11char_traitsIcESaIcEEEEixEm
libdlib.so.19.24.2:_ZNK4dlib15list_box_helper8list_boxINSt7__cxx1112basic_stringIjSt11char_traitsIjESaIjEEEE11is_selectedEm
libdlib.so.19.24.2:_ZNK4dlib15list_box_helper8list_boxINSt7__cxx1112basic_stringIjSt11char_traitsIjESaIjEEEE12get_selectedEv
libdlib.so.19.24.2:_ZNK4dlib15list_box_helper8list_boxINSt7__cxx1112basic_stringIjSt11char_traitsIjESaIjEEEE21current_element_validEv
libdlib.so.19.24.2:_ZNK4dlib15list_box_helper8list_boxINSt7__cxx1112basic_stringIjSt11char_traitsIjESaIjEEEE23multiple_select_enabledEv
libdlib.so.19.24.2:_ZNK4dlib15list_box_helper8list_boxINSt7__cxx1112basic_stringIjSt11char_traitsIjESaIjEEEE4drawERKNS_6canvasE
libdlib.so.19.24.2:_ZNK4dlib15list_box_helper8list_boxINSt7__cxx1112basic_stringIjSt11char_traitsIjESaIjEEEE4sizeEv
libdlib.so.19.24.2:_ZNK4dlib15list_box_helper8list_boxINSt7__cxx1112basic_stringIjSt11char_traitsIjESaIjEEEE5resetEv
libdlib.so.19.24.2:_ZNK4dlib15list_box_helper8list_boxINSt7__cxx1112basic_stringIjSt11char_traitsIjESaIjEEEE7elementEv
libdlib.so.19.24.2:_ZNK4dlib15list_box_helper8list_boxINSt7__cxx1112basic_stringIjSt11char_traitsIjESaIjEEEE8at_startEv
libdlib.so.19.24.2:_ZNK4dlib15list_box_helper8list_boxINSt7__cxx1112basic_stringIjSt11char_traitsIjESaIjEEEE9move_nextEv
libdlib.so.19.24.2:_ZNK4dlib15list_box_helper8list_boxINSt7__cxx1112basic_stringIjSt11char_traitsIjESaIjEEEEixEm
libdlib.so.19.24.2:_ZNK4dlib15list_box_helper8list_boxINSt7__cxx1112basic_stringIwSt11char_traitsIwESaIwEEEE11is_selectedEm
libdlib.so.19.24.2:_ZNK4dlib15list_box_helper8list_boxINSt7__cxx1112basic_stringIwSt11char_traitsIwESaIwEEEE12get_selectedEv
libdlib.so.19.24.2:_ZNK4dlib15list_box_helper8list_boxINSt7__cxx1112basic_stringIwSt11char_traitsIwESaIwEEEE21current_element_validEv
libdlib.so.19.24.2:_ZNK4dlib15list_box_helper8list_boxINSt7__cxx1112basic_stringIwSt11char_traitsIwESaIwEEEE23multiple_select_enabledEv
libdlib.so.19.24.2:_ZNK4dlib15list_box_helper8list_boxINSt7__cxx1112basic_stringIwSt11char_traitsIwESaIwEEEE4drawERKNS_6canvasE
libdlib.so.19.24.2:_ZNK4dlib15list_box_helper8list_boxINSt7__cxx1112basic_stringIwSt11char_traitsIwESaIwEEEE4sizeEv
libdlib.so.19.24.2:_ZNK4dlib15list_box_helper8list_boxINSt7__cxx1112basic_stringIwSt11char_traitsIwESaIwEEEE5resetEv
libdlib.so.19.24.2:_ZNK4dlib15list_box_helper8list_boxINSt7__cxx1112basic_stringIwSt11char_traitsIwESaIwEEEE7elementEv
libdlib.so.19.24.2:_ZNK4dlib15list_box_helper8list_boxINSt7__cxx1112basic_stringIwSt11char_traitsIwESaIwEEEE8at_startEv
libdlib.so.19.24.2:_ZNK4dlib15list_box_helper8list_boxINSt7__cxx1112basic_stringIwSt11char_traitsIwESaIwEEEE9move_nextEv
libdlib.so.19.24.2:_ZNK4dlib15list_box_helper8list_boxINSt7__cxx1112basic_stringIwSt11char_traitsIwESaIwEEEEixEm
libdlib.so.19.24.2:_ZNK4dlib15named_rectangle4drawERKNS_6canvasE
libdlib.so.19.24.2:_ZNK4dlib15named_rectangle4nameB5cxx11Ev
libdlib.so.19.24.2:_ZNK4dlib15named_rectangle5unameB5cxx11Ev
libdlib.so.19.24.2:_ZNK4dlib15named_rectangle5wnameB5cxx11Ev
libdlib.so.19.24.2:_ZNK4dlib15threaded_object10is_runningEv
libdlib.so.19.24.2:_ZNK4dlib15threaded_object11should_stopEv
libdlib.so.19.24.2:_ZNK4dlib15threaded_object14should_respawnEv
libdlib.so.19.24.2:_ZNK4dlib15threaded_object4waitEv
libdlib.so.19.24.2:_ZNK4dlib15threaded_object8is_aliveEv
libdlib.so.19.24.2:_ZNK4dlib15zoomable_region10zoom_scaleEv
libdlib.so.19.24.2:_ZNK4dlib15zoomable_region12display_rectEv
libdlib.so.19.24.2:_ZNK4dlib15zoomable_region14max_zoom_scaleEv
libdlib.so.19.24.2:_ZNK4dlib15zoomable_region14min_zoom_scaleEv
libdlib.so.19.24.2:_ZNK4dlib15zoomable_region14zoom_incrementEv
libdlib.so.19.24.2:_ZNK4dlib15zoomable_region15max_graph_pointEv
libdlib.so.19.24.2:_ZNK4dlib15zoomable_region18graph_to_gui_spaceERKNS_6vectorIdLl2EEE
libdlib.so.19.24.2:_ZNK4dlib15zoomable_region18gui_to_graph_spaceERKNS_6vectorIlLl2EEE
libdlib.so.19.24.2:_ZNK4dlib15zoomable_region4drawERKNS_6canvasE
libdlib.so.19.24.2:_ZNK4dlib16mouse_over_event13is_mouse_overEv
libdlib.so.19.24.2:_ZNK4dlib17popup_menu_region4drawERKNS_6canvasE
libdlib.so.19.24.2:_ZNK4dlib17scrollable_region10total_rectEv
libdlib.so.19.24.2:_ZNK4dlib17scrollable_region12display_rectEv
libdlib.so.19.24.2:_ZNK4dlib17scrollable_region13need_h_scrollEv
libdlib.so.19.24.2:_ZNK4dlib17scrollable_region13need_v_scrollEv
libdlib.so.19.24.2:_ZNK4dlib17scrollable_region18mouse_drag_enabledEv
libdlib.so.19.24.2:_ZNK4dlib17scrollable_region19vertical_scroll_posEv
libdlib.so.19.24.2:_ZNK4dlib17scrollable_region21horizontal_scroll_posEv
libdlib.so.19.24.2:_ZNK4dlib17scrollable_region25vertical_scroll_incrementEv
libdlib.so.19.24.2:_ZNK4dlib17scrollable_region27horizontal_scroll_incrementEv
libdlib.so.19.24.2:_ZNK4dlib17scrollable_region37vertical_mouse_wheel_scroll_incrementEv
libdlib.so.19.24.2:_ZNK4dlib17scrollable_region39horizontal_mouse_wheel_scroll_incrementEv
libdlib.so.19.24.2:_ZNK4dlib17scrollable_region4drawERKNS_6canvasE
libdlib.so.19.24.2:_ZNK4dlib18button_style_arrow11draw_buttonERKNS_6canvasERKNS_9rectangleEbRKNS_4fontEllRKNSt7__cxx1112basic_stringIjSt11char_traitsIjESaIjEEEb
libdlib.so.19.24.2:_ZNK4dlib18tokenizer_kernel_110get_streamEv
libdlib.so.19.24.2:_ZNK4dlib18tokenizer_kernel_110peek_tokenB5cxx11Ev
libdlib.so.19.24.2:_ZNK4dlib18tokenizer_kernel_113stream_is_setEv
libdlib.so.19.24.2:_ZNK4dlib18tokenizer_kernel_117lowercase_lettersB5cxx11Ev
libdlib.so.19.24.2:_ZNK4dlib18tokenizer_kernel_117uppercase_lettersB5cxx11Ev
libdlib.so.19.24.2:_ZNK4dlib18tokenizer_kernel_119get_identifier_bodyB5cxx11Ev
libdlib.so.19.24.2:_ZNK4dlib18tokenizer_kernel_119get_identifier_headB5cxx11Ev
libdlib.so.19.24.2:_ZNK4dlib18tokenizer_kernel_17numbersB5cxx11Ev
libdlib.so.19.24.2:_ZNK4dlib18tokenizer_kernel_19peek_typeEv
libdlib.so.19.24.2:_ZNK4dlib19perspective_display4drawERKNS_6canvasE
libdlib.so.19.24.2:_ZNK4dlib20button_style_default11draw_buttonERKNS_6canvasERKNS_9rectangleEbRKNS_4fontEllRKNSt7__cxx1112basic_stringIjSt11char_traitsIjESaIjEEEb
libdlib.so.19.24.2:_ZNK4dlib20button_style_default12get_min_sizeERKNSt7__cxx1112basic_stringIjSt11char_traitsIjESaIjEEERKNS_4fontE
libdlib.so.19.24.2:_ZNK4dlib20multithreaded_object10is_runningEv
libdlib.so.19.24.2:_ZNK4dlib20multithreaded_object11should_stopEv
libdlib.so.19.24.2:_ZNK4dlib20multithreaded_object23number_of_threads_aliveEv
libdlib.so.19.24.2:_ZNK4dlib20multithreaded_object28number_of_threads_registeredEv
libdlib.so.19.24.2:_ZNK4dlib20multithreaded_object4waitEv
libdlib.so.19.24.2:_ZNK4dlib21button_style_toolbar111draw_buttonERKNS_6canvasERKNS_9rectangleEbRKNS_4fontEllRKNSt7__cxx1112basic_stringIjSt11char_traitsIjESaIjEEEb
libdlib.so.19.24.2:_ZNK4dlib21button_style_toolbar112get_min_sizeERKNSt7__cxx1112basic_stringIjSt11char_traitsIjESaIjEEERKNS_4fontE
libdlib.so.19.24.2:_ZNK4dlib22global_function_search13best_functionERm
libdlib.so.19.24.2:_ZNK4dlib22global_function_search13best_functionEv
libdlib.so.19.24.2:_ZNK4dlib22global_function_search13num_functionsEv
libdlib.so.19.24.2:_ZNK4dlib22global_function_search18get_solver_epsilonEv
libdlib.so.19.24.2:_ZNK4dlib22global_function_search22get_best_function_evalERNS_6matrixIdLl0ELl1ENS_33memory_manager_stateless_kernel_1IcEENS_16row_major_layoutEEERdRm
libdlib.so.19.24.2:_ZNK4dlib22global_function_search24get_function_evaluationsERSt6vectorINS_13function_specESaIS2_EERS1_IS1_INS_19function_evaluationESaIS6_EESaIS8_EE
libdlib.so.19.24.2:_ZNK4dlib22global_function_search28get_relative_noise_magnitudeEv
libdlib.so.19.24.2:_ZNK4dlib22global_function_search34get_pure_random_search_probabilityEv
libdlib.so.19.24.2:_ZNK4dlib22global_function_search36has_outstanding_trust_region_requestEv
libdlib.so.19.24.2:_ZNK4dlib22global_function_search38get_monte_carlo_upper_bound_sample_numEv
libdlib.so.19.24.2:_ZNK4dlib22text_box_style_default13draw_text_boxERKNS_6canvasERKNS_9rectangleES6_bRKNS_4fontERKNSt7__cxx1112basic_stringIjSt11char_traitsIjESaIjEEES6_RKNS_9rgb_pixelESK_bbll
libdlib.so.19.24.2:_ZNK4dlib24entropy_decoder_kernel_110get_streamEv
libdlib.so.19.24.2:_ZNK4dlib24entropy_decoder_kernel_113stream_is_setEv
libdlib.so.19.24.2:_ZNK4dlib24entropy_decoder_kernel_117get_target_calledEv
libdlib.so.19.24.2:_ZNK4dlib24entropy_decoder_kernel_210get_streamEv
libdlib.so.19.24.2:_ZNK4dlib24entropy_decoder_kernel_213stream_is_setEv
libdlib.so.19.24.2:_ZNK4dlib24entropy_decoder_kernel_217get_target_calledEv
libdlib.so.19.24.2:_ZNK4dlib24entropy_encoder_kernel_110get_streamEv
libdlib.so.19.24.2:_ZNK4dlib24entropy_encoder_kernel_113stream_is_setEv
libdlib.so.19.24.2:_ZNK4dlib24entropy_encoder_kernel_210get_streamEv
libdlib.so.19.24.2:_ZNK4dlib24entropy_encoder_kernel_213stream_is_setEv
libdlib.so.19.24.2:_ZNK4dlib24scroll_bar_style_default17get_button_lengthEll
libdlib.so.19.24.2:_ZNK4dlib24scroll_bar_style_default17get_slider_lengthEll
libdlib.so.19.24.2:_ZNK4dlib24scroll_bar_style_default22draw_scroll_bar_sliderERKNS_6canvasERKNS_9rectangleEbllb
libdlib.so.19.24.2:_ZNK4dlib24scroll_bar_style_default26draw_scroll_bar_backgroundERKNS_6canvasERKNS_9rectangleEbllb
libdlib.so.19.24.2:_ZNK4dlib24text_field_style_default11get_paddingERKNS_4fontE
libdlib.so.19.24.2:_ZNK4dlib24text_field_style_default15draw_text_fieldERKNS_6canvasERKNS_9rectangleES6_bRKNS_4fontERKNSt7__cxx1112basic_stringIjSt11char_traitsIjESaIjEEEmmRKNS_9rgb_pixelESK_bbll
libdlib.so.19.24.2:_ZNK4dlib26button_style_toolbar_icon111draw_buttonERKNS_6canvasERKNS_9rectangleEbRKNS_4fontEllRKNSt7__cxx1112basic_stringIjSt11char_traitsIjESaIjEEEb
libdlib.so.19.24.2:_ZNK4dlib26button_style_toolbar_icon112get_min_sizeERKNSt7__cxx1112basic_stringIjSt11char_traitsIjESaIjEEERKNS_4fontE
libdlib.so.19.24.2:_ZNK4dlib26thread_pool_implementation13wait_for_taskEy
libdlib.so.19.24.2:_ZNK4dlib26thread_pool_implementation14is_task_threadEv
libdlib.so.19.24.2:_ZNK4dlib26thread_pool_implementation15find_ready_taskEv
libdlib.so.19.24.2:_ZNK4dlib26thread_pool_implementation16is_worker_threadEm
libdlib.so.19.24.2:_ZNK4dlib26thread_pool_implementation16task_id_to_indexEy
libdlib.so.19.24.2:_ZNK4dlib26thread_pool_implementation18wait_for_all_tasksEv
libdlib.so.19.24.2:_ZNK4dlib26thread_pool_implementation19num_threads_in_poolEv
libdlib.so.19.24.2:_ZNK4dlib26thread_pool_implementation20find_empty_task_slotEv
libdlib.so.19.24.2:_ZNK4dlib27function_evaluation_request12function_idxEv
libdlib.so.19.24.2:_ZNK4dlib27function_evaluation_request18has_been_evaluatedEv
libdlib.so.19.24.2:_ZNK4dlib27function_evaluation_request1xEv
libdlib.so.19.24.2:_ZNK4dlib27toggle_button_style_default12get_min_sizeERKNSt7__cxx1112basic_stringIjSt11char_traitsIjESaIjEEERKNS_4fontE
libdlib.so.19.24.2:_ZNK4dlib27toggle_button_style_default18draw_toggle_buttonERKNS_6canvasERKNS_9rectangleEbRKNS_4fontEllRKNSt7__cxx1112basic_stringIjSt11char_traitsIjESaIjEEEbb
libdlib.so.19.24.2:_ZNK4dlib29toggle_button_style_check_box12get_min_sizeERKNSt7__cxx1112basic_stringIjSt11char_traitsIjESaIjEEERKNS_4fontE
libdlib.so.19.24.2:_ZNK4dlib29toggle_button_style_check_box18draw_toggle_buttonERKNS_6canvasERKNS_9rectangleEbRKNS_4fontEllRKNSt7__cxx1112basic_stringIjSt11char_traitsIjESaIjEEEbb
libdlib.so.19.24.2:_ZNK4dlib32toggle_button_style_radio_button12get_min_sizeERKNSt7__cxx1112basic_stringIjSt11char_traitsIjESaIjEEERKNS_4fontE
libdlib.so.19.24.2:_ZNK4dlib32toggle_button_style_radio_button18draw_toggle_buttonERKNS_6canvasERKNS_9rectangleEbRKNS_4fontEllRKNSt7__cxx1112basic_stringIjSt11char_traitsIjESaIjEEEbb
libdlib.so.19.24.2:_ZNK4dlib4fileeqERKS0_
libdlib.so.19.24.2:_ZNK4dlib5label10text_colorEv
libdlib.so.19.24.2:_ZNK4dlib5label4drawERKNS_6canvasE
libdlib.so.19.24.2:_ZNK4dlib5label4textB5cxx11Ev
libdlib.so.19.24.2:_ZNK4dlib5label5utextB5cxx11Ev
libdlib.so.19.24.2:_ZNK4dlib5label5wtextB5cxx11Ev
libdlib.so.19.24.2:_ZNK4dlib6base6411line_endingEv
libdlib.so.19.24.2:_ZNK4dlib6base646decodeERSiRSo
libdlib.so.19.24.2:_ZNK4dlib6base646encodeERSiRSo
libdlib.so.19.24.2:_ZNK4dlib6button12tooltip_textB5cxx11Ev
libdlib.so.19.24.2:_ZNK4dlib6button13tooltip_utextB5cxx11Ev
libdlib.so.19.24.2:_ZNK4dlib6button13tooltip_wtextB5cxx11Ev
libdlib.so.19.24.2:_ZNK4dlib6button4nameB5cxx11Ev
libdlib.so.19.24.2:_ZNK4dlib6button5unameB5cxx11Ev
libdlib.so.19.24.2:_ZNK4dlib6button5wnameB5cxx11Ev
libdlib.so.19.24.2:_ZNK4dlib6canvas4fillEhhh
libdlib.so.19.24.2:_ZNK4dlib6linker10is_runningEv
libdlib.so.19.24.2:_ZNK4dlib6logger11global_data10auto_flushERKNSt7__cxx1112basic_stringIcSt11char_traitsIcESaIcEEE
libdlib.so.19.24.2:_ZNK4dlib6logger11global_data5levelERKNSt7__cxx1112basic_stringIcSt11char_traitsIcESaIcEEE
libdlib.so.19.24.2:_ZNK4dlib6server10is_runningEv
libdlib.so.19.24.2:_ZNK4dlib6server16get_listening_ipB5cxx11Ev
libdlib.so.19.24.2:_ZNK4dlib6server18get_listening_portEv
libdlib.so.19.24.2:_ZNK4dlib6server19get_max_connectionsEv
libdlib.so.19.24.2:_ZNK4dlib6server26get_graceful_close_timeoutEv
libdlib.so.19.24.2:_ZNK4dlib8menu_bar10menu_unameB5cxx11Em
libdlib.so.19.24.2:_ZNK4dlib8menu_bar10menu_wnameB5cxx11Em
libdlib.so.19.24.2:_ZNK4dlib8menu_bar15number_of_menusEv
libdlib.so.19.24.2:_ZNK4dlib8menu_bar4drawERKNS_6canvasE
libdlib.so.19.24.2:_ZNK4dlib8menu_bar4menuEm
libdlib.so.19.24.2:_ZNK4dlib8menu_bar9menu_nameB5cxx11Em
libdlib.so.19.24.2:_ZNK4dlib8text_box10text_colorEv
libdlib.so.19.24.2:_ZNK4dlib8text_box13get_text_rectEv
libdlib.so.19.24.2:_ZNK4dlib8text_box16background_colorEv
libdlib.so.19.24.2:_ZNK4dlib8text_box4drawERKNS_6canvasE
libdlib.so.19.24.2:_ZNK4dlib8text_box4textB5cxx11Ev
libdlib.so.19.24.2:_ZNK4dlib8text_box5utextB5cxx11Ev
libdlib.so.19.24.2:_ZNK4dlib8text_box5wtextB5cxx11Ev
libdlib.so.19.24.2:_ZNK4dlib9directory10get_parentEv
libdlib.so.19.24.2:_ZNK4dlib9directory12is_root_pathERKNSt7__cxx1112basic_stringIcSt11char_traitsIcESaIcEEE
libdlib.so.19.24.2:_ZNK4dlib9directoryeqERKS0_
libdlib.so.19.24.2:_ZNK4dlib9gopt_impl10funct_info41build_upper_bound_with_all_function_evalsEv
libdlib.so.19.24.2:_ZNK4dlib9text_grid10text_colorEmm
libdlib.so.19.24.2:_ZNK4dlib9text_grid11get_bg_rectEmm
libdlib.so.19.24.2:_ZNK4dlib9text_grid11is_editableEmm
libdlib.so.19.24.2:_ZNK4dlib9text_grid12border_colorEv
libdlib.so.19.24.2:_ZNK4dlib9text_grid13get_text_rectEmm
libdlib.so.19.24.2:_ZNK4dlib9text_grid14number_of_rowsEv
libdlib.so.19.24.2:_ZNK4dlib9text_grid16background_colorEmm
libdlib.so.19.24.2:_ZNK4dlib9text_grid17number_of_columnsEv
libdlib.so.19.24.2:_ZNK4dlib9text_grid27next_free_user_event_numberEv
libdlib.so.19.24.2:_ZNK4dlib9text_grid4drawERKNS_6canvasE
libdlib.so.19.24.2:_ZNK4dlib9text_grid4textB5cxx11Emm
libdlib.so.19.24.2:_ZNK4dlib9text_grid5utextB5cxx11Emm
libdlib.so.19.24.2:_ZNK4dlib9text_grid5wtextB5cxx11Emm
libdlib.so.19.24.2:_ZNSt6thread24_M_thread_deps_never_runEv
libdlib.so.19.24.2:_ZThn6704_N4dlib15list_box_helper8list_boxINSt7__cxx1112basic_stringIcSt11char_traitsIcESaIcEEEE7elementEv
libdlib.so.19.24.2:_ZThn6704_N4dlib15list_box_helper8list_boxINSt7__cxx1112basic_stringIcSt11char_traitsIcESaIcEEEED0Ev
libdlib.so.19.24.2:_ZThn6704_N4dlib15list_box_helper8list_boxINSt7__cxx1112basic_stringIcSt11char_traitsIcESaIcEEEED1Ev
libdlib.so.19.24.2:_ZThn6704_N4dlib15list_box_helper8list_boxINSt7__cxx1112basic_stringIjSt11char_traitsIjESaIjEEEE7elementEv
libdlib.so.19.24.2:_ZThn6704_N4dlib15list_box_helper8list_boxINSt7__cxx1112basic_stringIjSt11char_traitsIjESaIjEEEED0Ev
libdlib.so.19.24.2:_ZThn6704_N4dlib15list_box_helper8list_boxINSt7__cxx1112basic_stringIjSt11char_traitsIjESaIjEEEED1Ev
libdlib.so.19.24.2:_ZThn6704_N4dlib15list_box_helper8list_boxINSt7__cxx1112basic_stringIwSt11char_traitsIwESaIwEEEE7elementEv
libdlib.so.19.24.2:_ZThn6704_N4dlib15list_box_helper8list_boxINSt7__cxx1112basic_stringIwSt11char_traitsIwESaIwEEEED0Ev
libdlib.so.19.24.2:_ZThn6704_N4dlib15list_box_helper8list_boxINSt7__cxx1112basic_stringIwSt11char_traitsIwESaIwEEEED1Ev
libdlib.so.19.24.2:_ZThn6704_NK4dlib15list_box_helper8list_boxINSt7__cxx1112basic_stringIcSt11char_traitsIcESaIcEEEE21current_element_validEv
libdlib.so.19.24.2:_ZThn6704_NK4dlib15list_box_helper8list_boxINSt7__cxx1112basic_stringIcSt11char_traitsIcESaIcEEEE4sizeEv
libdlib.so.19.24.2:_ZThn6704_NK4dlib15list_box_helper8list_boxINSt7__cxx1112basic_stringIcSt11char_traitsIcESaIcEEEE5resetEv
libdlib.so.19.24.2:_ZThn6704_NK4dlib15list_box_helper8list_boxINSt7__cxx1112basic_stringIcSt11char_traitsIcESaIcEEEE7elementEv
libdlib.so.19.24.2:_ZThn6704_NK4dlib15list_box_helper8list_boxINSt7__cxx1112basic_stringIcSt11char_traitsIcESaIcEEEE8at_startEv
libdlib.so.19.24.2:_ZThn6704_NK4dlib15list_box_helper8list_boxINSt7__cxx1112basic_stringIcSt11char_traitsIcESaIcEEEE9move_nextEv
libdlib.so.19.24.2:_ZThn6704_NK4dlib15list_box_helper8list_boxINSt7__cxx1112basic_stringIjSt11char_traitsIjESaIjEEEE21current_element_validEv
libdlib.so.19.24.2:_ZThn6704_NK4dlib15list_box_helper8list_boxINSt7__cxx1112basic_stringIjSt11char_traitsIjESaIjEEEE4sizeEv
libdlib.so.19.24.2:_ZThn6704_NK4dlib15list_box_helper8list_boxINSt7__cxx1112basic_stringIjSt11char_traitsIjESaIjEEEE5resetEv
libdlib.so.19.24.2:_ZThn6704_NK4dlib15list_box_helper8list_boxINSt7__cxx1112basic_stringIjSt11char_traitsIjESaIjEEEE7elementEv
libdlib.so.19.24.2:_ZThn6704_NK4dlib15list_box_helper8list_boxINSt7__cxx1112basic_stringIjSt11char_traitsIjESaIjEEEE8at_startEv
libdlib.so.19.24.2:_ZThn6704_NK4dlib15list_box_helper8list_boxINSt7__cxx1112basic_stringIjSt11char_traitsIjESaIjEEEE9move_nextEv
libdlib.so.19.24.2:_ZThn6704_NK4dlib15list_box_helper8list_boxINSt7__cxx1112basic_stringIwSt11char_traitsIwESaIwEEEE21current_element_validEv
libdlib.so.19.24.2:_ZThn6704_NK4dlib15list_box_helper8list_boxINSt7__cxx1112basic_stringIwSt11char_traitsIwESaIwEEEE4sizeEv
libdlib.so.19.24.2:_ZThn6704_NK4dlib15list_box_helper8list_boxINSt7__cxx1112basic_stringIwSt11char_traitsIwESaIwEEEE5resetEv
libdlib.so.19.24.2:_ZThn6704_NK4dlib15list_box_helper8list_boxINSt7__cxx1112basic_stringIwSt11char_traitsIwESaIwEEEE7elementEv
libdlib.so.19.24.2:_ZThn6704_NK4dlib15list_box_helper8list_boxINSt7__cxx1112basic_stringIwSt11char_traitsIwESaIwEEEE8at_startEv
libdlib.so.19.24.2:_ZThn6704_NK4dlib15list_box_helper8list_boxINSt7__cxx1112basic_stringIwSt11char_traitsIwESaIwEEEE9move_nextEv
libdlib.so.19.24.2:_ZZN4dlib18any_function_basicINS_2te11storage_sboILm16ELm8EEEFvRKNS_6vectorIlLl2EEEbmEE12make_invokerIONS_23member_function_pointerIS7_bmvEEEEDavENUlPvS7_bmE_4_FUNESE_S7_bm
libdlib.so.19.24.2:_ZZN4dlib18any_function_basicINS_2te11storage_sboILm16ELm8EEEFvRNS_13toggle_buttonEEE12make_invokerIONS_23member_function_pointerIS5_vvvEEEEDavENUlPvS5_E_4_FUNESC_S5_
libdlib.so.19.24.2:_ZZN4dlib18any_function_basicINS_2te11storage_sboILm16ELm8EEEFvbEE12make_invokerIONS_23member_function_pointerIbvvvEEEEDavENUlPvbE_4_FUNESA_b
libdlib.so.19.24.2:_ZZN4dlib18any_function_basicINS_2te11storage_sboILm16ELm8EEEFvmEE12make_invokerIONS_23member_function_pointerImvvvEEEEDavENUlPvmE_4_FUNESA_m
libdlib.so.19.24.2:_ZZN4dlib18any_function_basicINS_2te11storage_sboILm16ELm8EEEFvvEE12make_invokerIONS_23member_function_pointerIvvvvEEEEDavENUlPvE_4_FUNESA_
libdlib.so.19.24.2:_ZZN4dlib18any_function_basicINS_2te11storage_sboILm16ELm8EEEFvvEE12make_invokerIONS_4impl21image_display_functorEEEDavENUlPvE_4_FUNESA_
libdlib.so.19.24.2:_ZZN4dlib2te11storage_sboILm16ELm8EEC4INS_23member_function_pointerIRKNS_6vectorIlLl2EEEbmvEES9_Lb1ELb1EEEOT_ENUlRKS2_RS2_E_4_FUNESD_SE_
libdlib.so.19.24.2:_ZZN4dlib2te11storage_sboILm16ELm8EEC4INS_23member_function_pointerIRKNS_6vectorIlLl2EEEbmvEES9_Lb1ELb1EEEOT_ENUlRS2_E_4_FUNESC_
libdlib.so.19.24.2:_ZZN4dlib2te11storage_sboILm16ELm8EEC4INS_23member_function_pointerIRKNS_6vectorIlLl2EEEbmvEES9_Lb1ELb1EEEOT_ENUlRS2_SC_E_4_FUNESC_SC_
libdlib.so.19.24.2:_ZZN4dlib2te11storage_sboILm16ELm8EEC4INS_23member_function_pointerIRKNS_6vectorIlLl2EEEbmvEES9_Lb1ELb1EEEOT_ENUlvE_4_FUNEv
libdlib.so.19.24.2:_ZZN4dlib2te11storage_sboILm16ELm8EEC4INS_23member_function_pointerIRNS_13toggle_buttonEvvvEES7_Lb1ELb1EEEOT_ENUlRKS2_RS2_E_4_FUNESB_SC_
libdlib.so.19.24.2:_ZZN4dlib2te11storage_sboILm16ELm8EEC4INS_23member_function_pointerIRNS_13toggle_buttonEvvvEES7_Lb1ELb1EEEOT_ENUlRS2_E_4_FUNESA_
libdlib.so.19.24.2:_ZZN4dlib2te11storage_sboILm16ELm8EEC4INS_23member_function_pointerIRNS_13toggle_buttonEvvvEES7_Lb1ELb1EEEOT_ENUlRS2_SA_E_4_FUNESA_SA_
libdlib.so.19.24.2:_ZZN4dlib2te11storage_sboILm16ELm8EEC4INS_23member_function_pointerIRNS_13toggle_buttonEvvvEES7_Lb1ELb1EEEOT_ENUlvE_4_FUNEv
libdlib.so.19.24.2:_ZZN4dlib2te11storage_sboILm16ELm8EEC4INS_23member_function_pointerIbvvvEES5_Lb1ELb1EEEOT_ENUlRKS2_RS2_E_4_FUNES9_SA_
libdlib.so.19.24.2:_ZZN4dlib2te11storage_sboILm16ELm8EEC4INS_23member_function_pointerIbvvvEES5_Lb1ELb1EEEOT_ENUlRS2_E_4_FUNES8_
libdlib.so.19.24.2:_ZZN4dlib2te11storage_sboILm16ELm8EEC4INS_23member_function_pointerIbvvvEES5_Lb1ELb1EEEOT_ENUlRS2_S8_E_4_FUNES8_S8_
libdlib.so.19.24.2:_ZZN4dlib2te11storage_sboILm16ELm8EEC4INS_23member_function_pointerIbvvvEES5_Lb1ELb1EEEOT_ENUlvE_4_FUNEv
libdlib.so.19.24.2:_ZZN4dlib2te11storage_sboILm16ELm8EEC4INS_23member_function_pointerImvvvEES5_Lb1ELb1EEEOT_ENUlRKS2_RS2_E_4_FUNES9_SA_
libdlib.so.19.24.2:_ZZN4dlib2te11storage_sboILm16ELm8EEC4INS_23member_function_pointerImvvvEES5_Lb1ELb1EEEOT_ENUlRS2_E_4_FUNES8_
libdlib.so.19.24.2:_ZZN4dlib2te11storage_sboILm16ELm8EEC4INS_23member_function_pointerImvvvEES5_Lb1ELb1EEEOT_ENUlRS2_S8_E_4_FUNES8_S8_
libdlib.so.19.24.2:_ZZN4dlib2te11storage_sboILm16ELm8EEC4INS_23member_function_pointerImvvvEES5_Lb1ELb1EEEOT_ENUlvE_4_FUNEv
libdlib.so.19.24.2:_ZZN4dlib2te11storage_sboILm16ELm8EEC4INS_23member_function_pointerIvvvvEES5_Lb1ELb1EEEOT_ENUlRKS2_RS2_E_4_FUNES9_SA_
libdlib.so.19.24.2:_ZZN4dlib2te11storage_sboILm16ELm8EEC4INS_23member_function_pointerIvvvvEES5_Lb1ELb1EEEOT_ENUlRS2_E_4_FUNES8_
libdlib.so.19.24.2:_ZZN4dlib2te11storage_sboILm16ELm8EEC4INS_23member_function_pointerIvvvvEES5_Lb1ELb1EEEOT_ENUlRS2_S8_E_4_FUNES8_S8_
libdlib.so.19.24.2:_ZZN4dlib2te11storage_sboILm16ELm8EEC4INS_23member_function_pointerIvvvvEES5_Lb1ELb1EEEOT_ENUlvE_4_FUNEv
libdlib.so.19.24.2:_ZZN4dlib2te11storage_sboILm16ELm8EEC4INS_4impl21image_display_functorES5_Lb1ELb1EEEOT_ENUlRKS2_RS2_E_4_FUNES9_SA_
libdlib.so.19.24.2:_ZZN4dlib2te11storage_sboILm16ELm8EEC4INS_4impl21image_display_functorES5_Lb1ELb1EEEOT_ENUlRS2_E_4_FUNES8_
libdlib.so.19.24.2:_ZZN4dlib2te11storage_sboILm16ELm8EEC4INS_4impl21image_display_functorES5_Lb1ELb1EEEOT_ENUlRS2_S8_E_4_FUNES8_S8_
libdlib.so.19.24.2:_ZZN4dlib2te11storage_sboILm16ELm8EEC4INS_4impl21image_display_functorES5_Lb1ELb1EEEOT_ENUlvE_4_FUNEv
